(dp0
I0
(lp1
I2
aI30
aI51
aI95
aI109
aI148
aI175
aI209
aI217
aI266
aI301
aI309
aI310
aI322
aI334
aI342
aI401
aI419
aI434
asI1
(lp2
I287
asI2
(lp3
I0
aI30
aI66
aI95
aI148
aI176
aI191
aI232
aI266
aI291
aI324
aI334
aI376
asI3
(lp4
I262
asI4
(lp5
I6
aI7
aI8
aI11
aI12
aI15
aI25
aI27
aI34
aI38
aI49
aI58
aI63
aI64
aI65
aI69
aI80
aI90
aI98
aI100
aI101
aI108
aI112
aI137
aI145
aI153
aI164
aI170
aI229
aI242
aI247
aI248
aI249
aI250
aI251
aI252
aI255
aI256
aI261
aI269
aI271
aI300
aI306
asI5
(lp6
I61
aI116
aI140
aI200
aI327
aI329
aI417
asI6
(lp7
I4
aI8
aI11
aI15
aI31
aI37
aI41
aI60
aI65
aI69
aI77
aI112
aI127
aI137
aI141
aI153
aI157
aI164
aI170
aI179
aI185
aI212
aI229
aI242
aI249
aI250
aI251
aI252
aI255
aI257
aI267
aI270
aI271
aI282
aI284
aI294
aI305
aI306
aI336
aI373
asI7
(lp8
I4
aI8
aI9
aI10
aI11
aI12
aI16
aI24
aI25
aI27
aI33
aI34
aI38
aI44
aI53
aI57
aI69
aI80
aI86
aI87
aI88
aI90
aI96
aI100
aI101
aI102
aI108
aI110
aI112
aI139
aI150
aI157
aI159
aI164
aI174
aI219
aI234
aI235
aI239
aI242
aI246
aI248
aI249
aI250
aI255
aI258
aI275
aI277
aI300
aI306
aI330
aI335
aI336
aI338
asI8
(lp9
I4
aI6
aI7
aI9
aI10
aI11
aI12
aI16
aI22
aI24
aI25
aI27
aI33
aI34
aI38
aI47
aI48
aI49
aI53
aI58
aI63
aI64
aI65
aI69
aI75
aI80
aI87
aI88
aI90
aI96
aI100
aI101
aI108
aI110
aI119
aI127
aI137
aI145
aI153
aI157
aI163
aI164
aI170
aI179
aI222
aI239
aI242
aI246
aI247
aI248
aI249
aI250
aI252
aI253
aI255
aI256
aI270
aI274
aI282
aI284
aI300
aI305
aI306
aI314
aI336
aI373
aI425
asI9
(lp10
I7
aI8
aI10
aI12
aI33
aI48
aI58
aI65
aI69
aI75
aI80
aI86
aI90
aI96
aI101
aI105
aI112
aI119
aI137
aI153
aI174
aI222
aI235
aI242
aI247
aI249
aI250
aI252
aI253
aI254
aI255
aI305
aI306
aI335
aI336
asI10
(lp11
I7
aI8
aI9
aI11
aI12
aI16
aI24
aI25
aI27
aI33
aI34
aI38
aI69
aI80
aI86
aI87
aI88
aI90
aI96
aI100
aI101
aI108
aI110
aI127
aI153
aI157
aI163
aI164
aI174
aI235
aI239
aI242
aI246
aI247
aI248
aI249
aI250
aI252
aI253
aI255
aI256
aI274
aI282
aI300
aI305
aI306
aI330
asI11
(lp12
I4
aI6
aI7
aI8
aI10
aI12
aI16
aI24
aI25
aI27
aI34
aI37
aI38
aI48
aI49
aI65
aI69
aI80
aI87
aI88
aI90
aI96
aI101
aI110
aI137
aI153
aI157
aI163
aI170
aI235
aI239
aI242
aI247
aI248
aI249
aI250
aI253
aI255
aI256
aI274
aI282
aI300
aI336
asI12
(lp13
I4
aI7
aI8
aI9
aI10
aI11
aI17
aI24
aI33
aI34
aI38
aI69
aI80
aI86
aI87
aI88
aI96
aI101
aI108
aI110
aI121
aI154
aI157
aI163
aI164
aI235
aI241
aI246
aI248
aI249
aI250
aI253
aI256
aI283
aI300
aI306
aI336
asI13
(lp14
I19
aI21
aI39
aI51
aI55
aI56
aI57
aI81
aI82
aI84
aI94
aI102
aI107
aI108
aI111
aI118
aI128
aI132
aI134
aI138
aI162
aI165
aI177
aI180
aI195
aI202
aI204
aI206
aI219
aI238
aI244
aI246
aI264
aI272
aI276
aI323
aI328
aI330
aI333
aI378
aI383
asI14
(lp15
I44
aI48
aI53
aI65
aI77
aI87
aI96
aI119
aI137
aI139
aI153
aI157
aI228
aI235
aI242
aI252
aI255
aI256
aI269
aI300
aI306
aI336
asI15
(lp16
I4
aI6
aI16
aI27
aI31
aI34
aI47
aI48
aI49
aI53
aI58
aI63
aI64
aI65
aI69
aI75
aI77
aI78
aI80
aI86
aI87
aI88
aI90
aI112
aI119
aI127
aI137
aI139
aI145
aI153
aI157
aI163
aI164
aI170
aI179
aI227
aI228
aI229
aI247
aI249
aI250
aI251
aI252
aI255
aI256
aI270
aI274
aI282
aI284
aI305
aI306
aI314
aI315
aI335
aI373
asI16
(lp17
I7
aI8
aI10
aI11
aI15
aI22
aI27
aI31
aI33
aI34
aI37
aI38
aI47
aI48
aI49
aI53
aI58
aI64
aI65
aI75
aI80
aI87
aI90
aI100
aI110
aI112
aI119
aI120
aI137
aI145
aI153
aI157
aI163
aI164
aI170
aI174
aI179
aI222
aI229
aI235
aI239
aI242
aI247
aI248
aI249
aI250
aI251
aI252
aI253
aI254
aI255
aI256
aI269
aI270
aI274
aI282
aI284
aI294
aI300
aI305
aI306
aI314
aI335
aI336
aI373
aI425
aI436
asI17
(lp18
I12
aI34
aI42
aI61
aI70
aI91
aI98
aI108
aI113
aI115
aI131
aI169
aI198
aI223
aI277
aI313
aI326
aI332
aI338
aI341
aI343
aI347
aI351
aI353
aI392
aI397
aI406
aI419
aI420
asI18
(lp19
I79
aI128
aI168
aI387
asI19
(lp20
I13
aI39
aI55
aI56
aI57
aI81
aI82
aI84
aI94
aI102
aI107
aI108
aI111
aI118
aI128
aI132
aI134
aI138
aI162
aI165
aI166
aI177
aI178
aI180
aI195
aI202
aI204
aI206
aI219
aI238
aI244
aI246
aI264
aI272
aI276
aI323
aI328
aI333
aI378
aI383
asI20
(lp21
I116
aI118
aI265
asI21
(lp22
I13
aI39
aI51
aI55
aI56
aI57
aI81
aI82
aI84
aI94
aI102
aI104
aI107
aI108
aI111
aI118
aI120
aI128
aI134
aI138
aI162
aI165
aI177
aI180
aI195
aI202
aI204
aI206
aI219
aI238
aI244
aI246
aI276
aI277
aI323
aI328
aI333
aI383
asI22
(lp23
I8
aI16
aI31
aI37
aI38
aI41
aI47
aI48
aI49
aI58
aI60
aI63
aI64
aI65
aI69
aI75
aI77
aI80
aI87
aI90
aI92
aI119
aI127
aI137
aI141
aI145
aI153
aI157
aI163
aI170
aI174
aI179
aI182
aI185
aI193
aI212
aI222
aI229
aI239
aI247
aI249
aI250
aI251
aI252
aI253
aI256
aI257
aI267
aI269
aI270
aI271
aI274
aI282
aI284
aI294
aI300
aI306
aI314
aI315
aI335
aI336
aI373
asI23
(lp24
I26
aI43
aI61
aI67
aI73
aI83
aI103
aI109
aI111
aI117
aI126
aI131
aI134
aI135
aI144
aI148
aI151
aI155
aI158
aI198
aI217
aI218
aI260
aI275
aI277
aI278
aI298
aI307
aI312
aI317
aI322
aI331
aI332
aI334
aI341
aI346
aI348
aI357
aI376
aI389
aI390
aI410
aI414
aI415
asI24
(lp25
I7
aI8
aI10
aI11
aI12
aI25
aI27
aI34
aI38
aI47
aI48
aI49
aI65
aI69
aI78
aI80
aI86
aI87
aI88
aI90
aI96
aI100
aI101
aI108
aI127
aI137
aI145
aI153
aI157
aI163
aI164
aI222
aI228
aI239
aI248
aI249
aI250
aI253
aI256
aI258
aI269
aI274
aI300
aI305
aI306
aI335
aI336
aI373
asI25
(lp26
I4
aI7
aI8
aI10
aI11
aI24
aI31
aI33
aI34
aI44
aI69
aI86
aI88
aI90
aI96
aI100
aI108
aI112
aI157
aI163
aI222
aI228
aI239
aI242
aI248
aI249
aI250
aI256
aI269
aI300
aI305
aI336
aI373
asI26
(lp27
I23
aI43
aI61
aI83
aI103
aI131
aI144
aI151
aI277
aI298
aI312
aI317
aI331
aI332
aI341
aI346
aI389
aI415
asI27
(lp28
I4
aI7
aI8
aI10
aI11
aI15
aI16
aI24
aI34
aI37
aI38
aI48
aI49
aI58
aI65
aI69
aI77
aI78
aI80
aI87
aI90
aI96
aI108
aI110
aI112
aI137
aI145
aI157
aI163
aI164
aI222
aI228
aI229
aI239
aI242
aI247
aI248
aI249
aI250
aI252
aI253
aI255
aI256
aI257
aI258
aI269
aI274
aI282
aI300
aI305
aI306
aI314
aI336
aI373
asI28
(lp29
I35
aI40
aI85
aI156
aI194
aI243
aI295
aI432
asI29
(lp30
I57
aI133
aI235
aI269
aI361
aI386
asI30
(lp31
I0
aI2
aI66
aI95
aI103
aI148
aI176
aI191
aI232
aI261
aI266
aI291
aI324
aI325
aI334
aI376
asI31
(lp32
I6
aI15
aI16
aI22
aI25
aI34
aI37
aI38
aI44
aI48
aI49
aI53
aI58
aI65
aI69
aI75
aI77
aI80
aI86
aI87
aI88
aI90
aI92
aI99
aI112
aI119
aI127
aI141
aI145
aI163
aI164
aI182
aI212
aI228
aI229
aI235
aI249
aI250
aI252
aI255
aI267
aI269
aI270
aI274
aI284
aI305
aI306
aI314
aI335
aI373
asI32
(lp33
I46
aI62
aI74
aI93
aI106
aI121
aI124
aI154
aI211
aI213
aI214
aI227
aI237
aI241
aI358
aI365
asI33
(lp34
I7
aI8
aI9
aI10
aI12
aI16
aI25
aI38
aI48
aI69
aI90
aI99
aI101
aI119
aI137
aI141
aI153
aI164
aI170
aI222
aI239
aI249
aI250
aI252
aI254
aI282
aI336
asI34
(lp35
I4
aI7
aI8
aI10
aI11
aI12
aI15
aI16
aI17
aI24
aI25
aI27
aI31
aI38
aI49
aI53
aI58
aI63
aI65
aI69
aI78
aI80
aI87
aI90
aI96
aI100
aI101
aI108
aI110
aI112
aI127
aI137
aI145
aI157
aI163
aI164
aI228
aI239
aI246
aI247
aI248
aI249
aI250
aI252
aI253
aI255
aI256
aI269
aI274
aI282
aI300
aI305
aI306
aI314
aI315
aI335
aI336
aI373
asI35
(lp36
I28
aI156
aI194
aI295
asI36
(lp37
I41
aI48
aI49
aI58
aI60
aI64
aI77
aI92
aI137
aI170
aI179
aI185
aI193
aI212
aI222
aI251
aI253
aI257
aI271
aI294
aI306
aI315
aI335
asI37
(lp38
I6
aI11
aI16
aI22
aI27
aI31
aI38
aI41
aI48
aI49
aI58
aI60
aI64
aI65
aI69
aI75
aI77
aI80
aI87
aI90
aI92
aI112
aI119
aI127
aI137
aI141
aI145
aI153
aI163
aI170
aI174
aI179
aI185
aI193
aI212
aI228
aI229
aI239
aI247
aI248
aI249
aI250
aI256
aI269
aI270
aI271
aI274
aI282
aI284
aI294
aI305
aI306
aI314
aI315
aI335
aI336
aI373
asI38
(lp39
I4
aI7
aI8
aI10
aI11
aI12
aI16
aI22
aI24
aI27
aI31
aI33
aI34
aI37
aI41
aI47
aI48
aI49
aI58
aI64
aI65
aI69
aI75
aI80
aI87
aI88
aI90
aI96
aI100
aI101
aI108
aI110
aI127
aI137
aI141
aI145
aI157
aI163
aI164
aI170
aI174
aI179
aI222
aI235
aI239
aI242
aI247
aI248
aI249
aI250
aI252
aI253
aI256
aI269
aI270
aI274
aI284
aI300
aI306
aI315
aI336
aI373
asI39
(lp40
I13
aI19
aI21
aI51
aI55
aI56
aI57
aI70
aI81
aI82
aI94
aI102
aI104
aI107
aI108
aI111
aI114
aI118
aI123
aI128
aI130
aI134
aI138
aI162
aI165
aI166
aI177
aI180
aI195
aI202
aI204
aI206
aI219
aI238
aI244
aI246
aI264
aI272
aI276
aI285
aI323
aI328
aI330
aI333
aI378
aI387
aI404
asI40
(lp41
I28
aI79
aI81
aI85
aI181
aI194
aI243
aI245
aI292
aI295
aI339
aI411
aI432
asI41
(lp42
I6
aI22
aI36
aI37
aI38
aI48
aI49
aI58
aI60
aI64
aI65
aI69
aI77
aI92
aI99
aI112
aI119
aI127
aI137
aI163
aI179
aI185
aI193
aI212
aI229
aI242
aI249
aI250
aI251
aI271
aI284
aI294
aI306
aI315
aI373
asI42
(lp43
I17
aI70
aI169
aI223
aI277
aI331
aI332
aI353
aI397
asI43
(lp44
I23
aI26
aI61
aI73
aI83
aI103
aI109
aI117
aI126
aI131
aI144
aI151
aI158
aI198
aI260
aI275
aI277
aI298
aI312
aI317
aI341
aI346
aI389
aI390
aI434
asI44
(lp45
I7
aI14
aI25
aI31
aI77
aI86
aI88
aI96
aI228
aI229
aI250
aI267
aI284
aI306
asI45
(lp46
I56
aI91
aI136
aI158
aI165
aI172
aI183
aI277
aI293
aI330
aI339
aI343
aI364
aI372
aI392
aI405
aI420
aI421
asI46
(lp47
I32
aI74
aI93
aI121
aI213
aI214
aI227
aI241
aI365
aI371
asI47
(lp48
I8
aI15
aI16
aI22
aI24
aI38
aI48
aI49
aI58
aI63
aI64
aI65
aI69
aI75
aI80
aI87
aI88
aI90
aI92
aI96
aI110
aI112
aI119
aI127
aI137
aI139
aI141
aI153
aI157
aI163
aI164
aI170
aI174
aI179
aI182
aI222
aI229
aI239
aI242
aI247
aI248
aI249
aI250
aI252
aI253
aI254
aI255
aI256
aI257
aI270
aI271
aI274
aI282
aI284
aI300
aI306
aI314
aI315
aI335
aI336
aI373
aI425
asI48
(lp49
I8
aI9
aI11
aI14
aI15
aI16
aI22
aI24
aI27
aI31
aI33
aI36
aI37
aI38
aI41
aI47
aI49
aI58
aI60
aI63
aI64
aI65
aI69
aI75
aI77
aI80
aI86
aI87
aI88
aI90
aI92
aI96
aI99
aI100
aI112
aI119
aI127
aI137
aI141
aI145
aI153
aI157
aI163
aI164
aI170
aI179
aI185
aI193
aI212
aI222
aI229
aI239
aI242
aI247
aI248
aI249
aI250
aI251
aI252
aI253
aI255
aI256
aI257
aI267
aI271
aI274
aI282
aI284
aI294
aI300
aI305
aI306
aI314
aI315
aI335
aI336
aI373
asI49
(lp50
I4
aI8
aI11
aI15
aI16
aI22
aI24
aI27
aI31
aI34
aI36
aI37
aI38
aI41
aI47
aI48
aI58
aI60
aI64
aI65
aI69
aI75
aI77
aI80
aI87
aI90
aI92
aI100
aI127
aI137
aI141
aI145
aI153
aI157
aI163
aI164
aI170
aI174
aI179
aI185
aI193
aI212
aI222
aI235
aI239
aI242
aI247
aI248
aI249
aI250
aI252
aI253
aI256
aI257
aI271
aI274
aI282
aI284
aI294
aI300
aI306
aI314
aI315
aI336
aI373
aI425
asI50
(lp51
I114
aI128
aI135
aI204
aI234
aI349
asI51
(lp52
I0
aI13
aI21
aI39
aI55
aI56
aI57
aI70
aI84
aI95
aI104
aI107
aI108
aI111
aI128
aI134
aI138
aI162
aI165
aI177
aI180
aI195
aI201
aI202
aI204
aI206
aI219
aI234
aI244
aI246
aI252
aI272
aI276
aI301
aI309
aI323
aI328
aI333
aI387
asI52
(lp53
I70
aI114
aI123
aI149
aI203
aI292
aI318
aI321
aI338
aI356
aI380
aI383
aI387
aI404
asI53
(lp54
I7
aI8
aI14
aI15
aI16
aI31
aI34
aI69
aI78
aI87
aI88
aI96
aI119
aI137
aI139
aI150
aI222
aI228
aI229
aI248
aI250
aI252
aI256
aI258
aI269
aI300
aI306
asI54
(lp55
I107
aI108
aI200
aI260
asI55
(lp56
I13
aI19
aI21
aI39
aI51
aI56
aI57
aI81
aI82
aI84
aI94
aI102
aI107
aI108
aI111
aI118
aI128
aI132
aI134
aI138
aI162
aI165
aI166
aI177
aI180
aI195
aI201
aI202
aI204
aI206
aI219
aI238
aI244
aI246
aI264
aI272
aI285
aI323
aI328
aI330
aI333
aI378
aI383
aI387
asI56
(lp57
I13
aI19
aI21
aI39
aI45
aI51
aI55
aI57
aI81
aI84
aI94
aI102
aI104
aI107
aI108
aI111
aI128
aI132
aI134
aI138
aI162
aI165
aI166
aI177
aI180
aI195
aI201
aI202
aI204
aI206
aI219
aI238
aI244
aI246
aI264
aI266
aI272
aI276
aI323
aI328
aI333
aI378
aI383
asI57
(lp58
I7
aI13
aI19
aI21
aI29
aI39
aI51
aI55
aI56
aI81
aI82
aI84
aI94
aI102
aI104
aI107
aI108
aI111
aI118
aI128
aI132
aI134
aI138
aI162
aI165
aI166
aI169
aI177
aI180
aI195
aI202
aI204
aI206
aI219
aI238
aI244
aI246
aI264
aI272
aI275
aI276
aI306
aI323
aI328
aI333
aI378
asI58
(lp59
I4
aI8
aI9
aI15
aI16
aI22
aI27
aI31
aI34
aI36
aI37
aI38
aI41
aI47
aI48
aI49
aI60
aI64
aI65
aI75
aI77
aI80
aI87
aI90
aI92
aI99
aI105
aI112
aI119
aI127
aI137
aI141
aI145
aI153
aI163
aI164
aI170
aI174
aI179
aI185
aI193
aI212
aI222
aI229
aI239
aI242
aI247
aI248
aI249
aI250
aI251
aI252
aI253
aI255
aI256
aI269
aI270
aI271
aI274
aI282
aI284
aI294
aI300
aI305
aI306
aI314
aI315
aI335
aI336
aI373
asI59
(lp60
I79
aI263
aI411
asI60
(lp61
I6
aI22
aI36
aI37
aI41
aI48
aI49
aI58
aI64
aI90
aI92
aI99
aI127
aI137
aI153
aI170
aI179
aI185
aI193
aI212
aI229
aI249
aI251
aI252
aI253
aI257
aI270
aI271
aI284
aI294
aI306
aI314
aI315
aI336
aI373
asI61
(lp62
I5
aI17
aI23
aI26
aI43
aI67
aI70
aI83
aI91
aI103
aI113
aI115
aI117
aI126
aI130
aI131
aI146
aI151
aI158
aI169
aI218
aI223
aI260
aI275
aI277
aI285
aI286
aI298
aI301
aI307
aI312
aI317
aI322
aI330
aI331
aI332
aI341
aI343
aI346
aI348
aI370
aI376
aI383
aI389
aI393
aI397
aI401
aI414
aI419
aI434
asI62
(lp63
I32
aI74
aI93
aI124
aI154
aI171
aI211
aI213
aI214
aI365
aI396
asI63
(lp64
I4
aI8
aI15
aI22
aI34
aI47
aI48
aI87
aI88
aI90
aI96
aI110
aI112
aI137
aI253
aI267
aI274
aI315
aI330
aI336
asI64
(lp65
I4
aI8
aI15
aI16
aI22
aI36
aI37
aI38
aI41
aI47
aI48
aI49
aI58
aI60
aI65
aI69
aI75
aI77
aI80
aI88
aI92
aI119
aI127
aI137
aI145
aI153
aI163
aI164
aI170
aI174
aI179
aI185
aI193
aI212
aI222
aI229
aI239
aI242
aI247
aI248
aI249
aI250
aI251
aI252
aI255
aI256
aI257
aI267
aI270
aI271
aI284
aI294
aI306
aI314
aI315
aI335
aI336
aI373
asI65
(lp66
I4
aI6
aI8
aI9
aI11
aI14
aI15
aI16
aI22
aI24
aI27
aI31
aI34
aI37
aI38
aI41
aI47
aI48
aI49
aI58
aI64
aI69
aI75
aI77
aI80
aI87
aI88
aI90
aI92
aI96
aI99
aI100
aI101
aI110
aI112
aI119
aI127
aI137
aI141
aI145
aI153
aI157
aI163
aI164
aI170
aI174
aI179
aI185
aI193
aI212
aI222
aI239
aI242
aI247
aI248
aI249
aI250
aI251
aI252
aI253
aI254
aI255
aI256
aI257
aI259
aI267
aI269
aI270
aI271
aI274
aI282
aI284
aI294
aI300
aI305
aI306
aI314
aI330
aI336
aI361
aI373
aI425
asI66
(lp67
I2
aI30
aI95
aI148
aI176
aI191
aI232
aI266
aI291
aI334
asI67
(lp68
I23
aI61
aI73
aI83
aI103
aI115
aI117
aI126
aI131
aI136
aI144
aI151
aI155
aI158
aI190
aI198
aI215
aI230
aI245
aI260
aI275
aI277
aI281
aI312
aI317
aI341
aI346
aI369
aI370
asI68
(lp69
I138
aI189
aI202
aI223
aI224
aI313
aI323
aI380
aI386
asI69
(lp70
I4
aI6
aI7
aI8
aI9
aI10
aI11
aI12
aI15
aI22
aI24
aI25
aI27
aI31
aI33
aI34
aI37
aI38
aI41
aI47
aI48
aI49
aI53
aI64
aI65
aI75
aI77
aI80
aI83
aI86
aI88
aI90
aI100
aI101
aI137
aI145
aI153
aI157
aI163
aI164
aI174
aI185
aI212
aI222
aI235
aI239
aI242
aI247
aI248
aI249
aI250
aI251
aI252
aI253
aI254
aI255
aI256
aI257
aI267
aI270
aI274
aI282
aI284
aI300
aI305
aI306
aI314
aI335
aI336
aI373
aI425
aI436
asI70
(lp71
I17
aI39
aI42
aI51
aI52
aI61
aI98
aI104
aI109
aI113
aI114
aI118
aI123
aI131
aI133
aI136
aI142
aI148
aI149
aI155
aI168
aI169
aI192
aI203
aI205
aI223
aI273
aI276
aI277
aI285
aI292
aI312
aI313
aI318
aI321
aI338
aI347
aI356
aI363
aI380
aI383
aI387
aI397
aI400
aI404
aI428
asI71
(lp72
I74
aI93
aI121
aI214
aI227
aI237
asI72
(lp73
I91
aI126
aI130
aI136
aI220
aI277
aI286
aI296
aI298
aI301
aI393
aI434
asI73
(lp74
I23
aI43
aI67
aI83
aI103
aI117
aI126
aI131
aI144
aI151
aI158
aI198
aI216
aI260
aI275
aI277
aI312
aI317
aI331
aI341
aI346
aI414
asI74
(lp75
I32
aI46
aI62
aI71
aI93
aI154
aI211
aI213
aI214
aI237
aI396
asI75
(lp76
I8
aI9
aI15
aI16
aI22
aI31
aI37
aI38
aI47
aI48
aI49
aI58
aI64
aI65
aI69
aI77
aI80
aI87
aI92
aI112
aI119
aI137
aI141
aI145
aI153
aI157
aI163
aI170
aI174
aI179
aI212
aI222
aI228
aI229
aI239
aI247
aI248
aI249
aI250
aI252
aI256
aI271
aI274
aI284
aI294
aI300
aI306
aI314
aI315
aI336
aI373
aI425
asI76
(lp77
sI77
(lp78
I6
aI14
aI15
aI22
aI27
aI31
aI36
aI37
aI41
aI44
aI48
aI49
aI58
aI64
aI65
aI69
aI75
aI80
aI86
aI88
aI96
aI137
aI145
aI153
aI164
aI212
aI222
aI229
aI242
aI247
aI249
aI250
aI251
aI252
aI255
aI256
aI257
aI267
aI270
aI271
aI284
aI294
aI306
aI315
aI335
aI373
asI78
(lp79
I15
aI24
aI27
aI34
aI53
aI86
aI87
aI88
aI90
aI96
aI100
aI139
aI159
aI228
aI235
aI248
aI250
aI253
aI258
aI269
aI300
aI306
aI373
asI79
(lp80
I18
aI40
aI59
aI85
aI91
aI116
aI136
aI172
aI181
aI182
aI194
aI217
aI243
aI269
aI277
aI293
aI295
aI299
aI343
aI377
aI418
aI432
asI80
(lp81
I4
aI7
aI8
aI9
aI10
aI11
aI12
aI15
aI16
aI22
aI24
aI27
aI31
aI34
aI37
aI38
aI47
aI48
aI49
aI58
aI64
aI65
aI69
aI75
aI77
aI87
aI90
aI100
aI101
aI110
aI112
aI119
aI127
aI137
aI141
aI145
aI153
aI157
aI163
aI164
aI170
aI174
aI179
aI222
aI228
aI229
aI235
aI239
aI242
aI247
aI248
aI249
aI250
aI252
aI253
aI255
aI256
aI258
aI270
aI274
aI282
aI284
aI300
aI305
aI306
aI314
aI330
aI336
aI373
asI81
(lp82
I13
aI19
aI21
aI39
aI40
aI55
aI56
aI57
aI82
aI84
aI94
aI102
aI107
aI108
aI111
aI118
aI128
aI132
aI134
aI138
aI162
aI165
aI166
aI177
aI180
aI195
aI201
aI202
aI204
aI206
aI219
aI238
aI244
aI246
aI264
aI272
aI276
aI323
aI328
aI330
aI333
aI378
aI383
aI397
aI406
asI82
(lp83
I13
aI19
aI21
aI39
aI55
aI57
aI81
aI84
aI90
aI94
aI102
aI107
aI108
aI111
aI118
aI128
aI130
aI134
aI138
aI162
aI165
aI166
aI173
aI180
aI195
aI201
aI202
aI204
aI206
aI219
aI238
aI244
aI246
aI264
aI272
aI276
aI323
aI328
aI330
aI333
aI397
aI412
asI83
(lp84
I23
aI26
aI43
aI61
aI67
aI69
aI73
aI91
aI98
aI102
aI103
aI107
aI113
aI114
aI115
aI117
aI126
aI130
aI131
aI134
aI144
aI151
aI155
aI158
aI189
aI198
aI260
aI275
aI277
aI284
aI285
aI298
aI312
aI317
aI331
aI341
aI346
aI351
aI353
aI390
aI414
asI84
(lp85
I13
aI19
aI21
aI51
aI55
aI56
aI57
aI81
aI82
aI94
aI102
aI104
aI107
aI108
aI111
aI118
aI128
aI132
aI134
aI138
aI162
aI165
aI166
aI177
aI180
aI195
aI202
aI204
aI206
aI219
aI238
aI244
aI246
aI252
aI254
aI264
aI272
aI276
aI306
aI323
aI327
aI328
aI330
aI333
aI378
aI383
asI85
(lp86
I28
aI40
aI79
aI89
aI123
aI156
aI181
aI194
aI243
aI432
asI86
(lp87
I7
aI9
aI10
aI12
aI15
aI24
aI25
aI31
aI44
aI48
aI69
aI77
aI78
aI88
aI96
aI99
aI137
aI139
aI141
aI150
aI242
aI250
aI252
aI255
aI256
aI258
aI270
aI274
aI284
aI305
aI306
asI87
(lp88
I7
aI8
aI10
aI11
aI12
aI14
aI15
aI16
aI22
aI24
aI27
aI31
aI34
aI37
aI38
aI47
aI48
aI49
aI53
aI58
aI63
aI65
aI75
aI78
aI80
aI88
aI90
aI92
aI96
aI100
aI101
aI110
aI112
aI119
aI127
aI137
aI139
aI141
aI153
aI157
aI163
aI164
aI170
aI174
aI222
aI229
aI235
aI239
aI247
aI248
aI249
aI250
aI251
aI252
aI253
aI255
aI256
aI258
aI267
aI269
aI270
aI274
aI282
aI284
aI300
aI305
aI306
aI314
aI315
aI335
aI336
aI373
asI88
(lp89
I7
aI8
aI10
aI11
aI12
aI15
aI24
aI25
aI31
aI38
aI44
aI47
aI48
aI53
aI63
aI64
aI65
aI69
aI77
aI78
aI86
aI87
aI96
aI100
aI108
aI112
aI119
aI127
aI137
aI141
aI145
aI150
aI153
aI157
aI163
aI164
aI170
aI222
aI228
aI235
aI247
aI248
aI250
aI255
aI256
aI257
aI258
aI267
aI269
aI270
aI274
aI300
aI306
aI314
aI335
aI336
aI373
asI89
(lp90
I85
aI432
asI90
(lp91
I4
aI7
aI8
aI9
aI10
aI11
aI15
aI16
aI22
aI24
aI25
aI27
aI31
aI33
aI34
aI37
aI38
aI47
aI48
aI49
aI58
aI60
aI63
aI65
aI69
aI78
aI80
aI82
aI87
aI96
aI100
aI101
aI108
aI110
aI112
aI127
aI133
aI137
aI148
aI153
aI157
aI159
aI163
aI164
aI170
aI186
aI222
aI228
aI239
aI241
aI242
aI246
aI247
aI248
aI249
aI250
aI251
aI252
aI253
aI255
aI256
aI258
aI267
aI269
aI270
aI274
aI284
aI294
aI300
aI305
aI306
aI314
aI315
aI336
aI361
aI373
aI404
aI425
asI91
(lp92
I17
aI45
aI61
aI72
aI79
aI83
aI108
aI113
aI115
aI136
aI146
aI158
aI169
aI172
aI173
aI260
aI272
aI277
aI296
aI298
aI301
aI302
aI326
aI331
aI341
aI343
aI348
aI351
aI353
aI364
aI366
aI367
aI370
aI372
aI385
aI405
aI406
aI418
aI420
aI421
aI422
aI427
aI434
asI92
(lp93
I22
aI31
aI36
aI37
aI41
aI47
aI48
aI49
aI58
aI60
aI64
aI65
aI75
aI87
aI137
aI163
aI179
aI193
aI212
aI222
aI239
aI247
aI257
aI258
aI270
aI271
aI274
aI284
aI294
aI314
aI315
aI336
aI373
asI93
(lp94
I32
aI46
aI62
aI71
aI74
aI106
aI121
aI124
aI154
aI167
aI211
aI213
aI214
aI227
aI237
aI290
aI365
aI371
asI94
(lp95
I13
aI19
aI21
aI39
aI55
aI56
aI57
aI81
aI82
aI84
aI102
aI104
aI107
aI108
aI111
aI118
aI128
aI130
aI132
aI134
aI138
aI162
aI165
aI166
aI177
aI180
aI195
aI201
aI202
aI204
aI206
aI219
aI238
aI244
aI246
aI264
aI272
aI276
aI323
aI328
aI330
aI333
aI356
aI378
aI383
aI397
aI406
asI95
(lp96
I0
aI2
aI30
aI51
aI66
aI109
aI122
aI148
aI175
aI176
aI191
aI217
aI232
aI266
aI291
aI309
aI310
aI334
aI340
aI342
aI376
asI96
(lp97
I7
aI8
aI9
aI10
aI11
aI12
aI14
aI24
aI25
aI27
aI34
aI38
aI44
aI47
aI48
aI53
aI63
aI65
aI77
aI78
aI86
aI87
aI88
aI90
aI101
aI108
aI110
aI137
aI139
aI150
aI153
aI157
aI163
aI164
aI182
aI222
aI228
aI247
aI248
aI249
aI250
aI252
aI253
aI258
aI267
aI274
aI282
aI300
aI305
aI306
aI314
aI335
aI373
asI97
(lp98
I221
aI299
asI98
(lp99
I4
aI17
aI70
aI83
aI223
aI277
aI397
asI99
(lp100
I31
aI33
aI41
aI48
aI58
aI60
aI65
aI86
aI127
aI153
aI170
aI185
aI222
aI242
aI257
aI270
aI282
aI294
aI315
aI336
asI100
(lp101
I4
aI7
aI8
aI10
aI16
aI24
aI25
aI34
aI38
aI48
aI49
aI65
aI69
aI78
aI80
aI87
aI88
aI90
aI101
aI108
aI110
aI112
aI139
aI145
aI159
aI163
aI170
aI178
aI228
aI235
aI247
aI248
aI249
aI250
aI255
aI258
aI267
aI269
aI300
aI305
aI306
aI314
aI330
aI335
aI336
aI373
asI101
(lp102
I4
aI7
aI8
aI9
aI10
aI11
aI12
aI24
aI33
aI34
aI38
aI65
aI69
aI80
aI87
aI90
aI96
aI100
aI108
aI110
aI112
aI157
aI163
aI164
aI235
aI239
aI242
aI246
aI247
aI249
aI250
aI252
aI253
aI282
aI300
aI305
aI306
aI336
aI373
asI102
(lp103
I7
aI13
aI19
aI21
aI39
aI55
aI56
aI57
aI81
aI82
aI83
aI84
aI94
aI107
aI108
aI111
aI115
aI118
aI131
aI132
aI134
aI138
aI162
aI166
aI180
aI192
aI195
aI201
aI202
aI204
aI206
aI219
aI238
aI244
aI246
aI264
aI269
aI276
aI305
aI323
aI328
aI330
aI333
aI378
aI383
aI387
aI404
asI103
(lp104
I23
aI26
aI30
aI43
aI61
aI67
aI73
aI83
aI117
aI126
aI130
aI131
aI144
aI148
aI151
aI158
aI198
aI218
aI240
aI260
aI275
aI277
aI298
aI307
aI312
aI317
aI322
aI331
aI332
aI334
aI341
aI346
aI389
aI390
aI414
aI415
asI104
(lp105
I21
aI39
aI51
aI56
aI57
aI70
aI84
aI94
aI107
aI132
aI134
aI162
aI165
aI177
aI195
aI201
aI202
aI206
aI219
aI238
aI244
aI246
aI252
aI272
aI276
aI323
aI383
asI105
(lp106
I9
aI58
aI119
aI139
aI141
aI145
aI228
aI250
aI253
aI269
aI284
aI407
asI106
(lp107
I32
aI93
aI121
aI124
aI211
aI213
aI214
aI227
aI241
asI107
(lp108
I13
aI19
aI21
aI39
aI51
aI54
aI55
aI56
aI57
aI81
aI82
aI83
aI84
aI94
aI102
aI104
aI111
aI118
aI128
aI132
aI134
aI138
aI162
aI165
aI177
aI180
aI195
aI201
aI202
aI204
aI219
aI238
aI246
aI252
aI260
aI264
aI272
aI276
aI293
aI323
aI328
aI330
aI333
aI378
aI383
aI387
asI108
(lp109
I4
aI7
aI8
aI10
aI12
aI13
aI17
aI19
aI21
aI24
aI25
aI27
aI34
aI38
aI39
aI51
aI54
aI55
aI56
aI57
aI81
aI82
aI84
aI88
aI90
aI91
aI94
aI96
aI100
aI101
aI102
aI111
aI112
aI114
aI118
aI128
aI134
aI138
aI146
aI150
aI153
aI155
aI157
aI162
aI165
aI166
aI177
aI180
aI195
aI201
aI202
aI204
aI219
aI234
aI238
aI242
aI246
aI248
aI249
aI250
aI252
aI255
aI258
aI264
aI269
aI272
aI274
aI276
aI323
aI328
aI330
aI333
aI336
aI378
asI109
(lp110
I0
aI23
aI43
aI70
aI95
aI117
aI136
aI155
aI198
aI277
aI311
aI348
aI382
aI389
aI392
aI415
asI110
(lp111
I7
aI8
aI10
aI11
aI12
aI16
aI27
aI34
aI38
aI47
aI63
aI65
aI80
aI87
aI90
aI96
aI100
aI101
aI112
aI153
aI157
aI159
aI163
aI164
aI228
aI235
aI239
aI246
aI247
aI248
aI249
aI250
aI252
aI274
aI282
aI306
aI314
aI330
aI336
aI373
asI111
(lp112
I13
aI19
aI21
aI23
aI39
aI51
aI55
aI56
aI57
aI81
aI82
aI84
aI94
aI102
aI107
aI108
aI118
aI123
aI128
aI132
aI134
aI138
aI162
aI165
aI166
aI177
aI180
aI195
aI201
aI202
aI204
aI206
aI219
aI238
aI244
aI246
aI264
aI272
aI276
aI285
aI323
aI328
aI330
aI333
aI353
aI366
aI378
aI380
aI383
aI387
asI112
(lp113
I4
aI6
aI7
aI9
aI15
aI16
aI25
aI27
aI31
aI34
aI37
aI41
aI47
aI48
aI58
aI63
aI65
aI75
aI80
aI87
aI88
aI90
aI100
aI101
aI108
aI110
aI127
aI137
aI141
aI152
aI153
aI157
aI159
aI164
aI170
aI174
aI185
aI212
aI228
aI229
aI235
aI239
aI242
aI247
aI249
aI250
aI251
aI253
aI255
aI256
aI257
aI267
aI269
aI270
aI271
aI274
aI282
aI284
aI294
aI300
aI305
aI306
aI314
aI315
aI330
aI336
aI373
asI113
(lp114
I17
aI61
aI70
aI83
aI91
aI114
aI118
aI123
aI131
aI133
aI136
aI142
aI149
aI151
aI168
aI192
aI205
aI234
aI273
aI276
aI277
aI285
aI292
aI318
aI321
aI326
aI338
aI341
aI353
aI356
aI363
aI366
aI380
aI383
aI387
aI392
aI400
aI404
aI422
aI428
asI114
(lp115
I39
aI50
aI52
aI70
aI83
aI108
aI113
aI118
aI123
aI128
aI133
aI142
aI149
aI158
aI168
aI180
aI203
aI223
aI234
aI272
aI273
aI276
aI285
aI292
aI299
aI313
aI318
aI321
aI323
aI338
aI356
aI380
aI383
aI387
aI404
asI115
(lp116
I17
aI61
aI67
aI83
aI91
aI102
aI136
aI146
aI159
aI169
aI260
aI277
aI285
aI296
aI329
aI341
aI343
aI351
aI364
aI366
aI367
aI370
aI405
aI421
aI422
asI116
(lp117
I5
aI20
aI79
aI234
aI245
aI265
aI276
asI117
(lp118
I23
aI43
aI61
aI67
aI73
aI83
aI103
aI109
aI126
aI131
aI135
aI144
aI151
aI158
aI198
aI218
aI226
aI260
aI275
aI276
aI277
aI298
aI312
aI317
aI332
aI341
aI346
aI348
aI353
aI367
aI389
aI414
aI415
asI118
(lp119
I13
aI19
aI20
aI21
aI39
aI55
aI57
aI70
aI81
aI82
aI84
aI94
aI102
aI107
aI108
aI111
aI113
aI114
aI123
aI128
aI133
aI134
aI136
aI138
aI162
aI165
aI166
aI168
aI180
aI195
aI196
aI201
aI202
aI204
aI206
aI219
aI238
aI244
aI246
aI272
aI273
aI276
aI277
aI285
aI292
aI321
aI323
aI328
aI330
aI333
aI356
aI378
aI380
aI383
aI387
aI404
asI119
(lp120
I8
aI9
aI14
aI15
aI16
aI22
aI31
aI33
aI37
aI41
aI47
aI48
aI53
aI58
aI64
aI65
aI75
aI80
aI87
aI88
aI105
aI137
aI141
aI145
aI153
aI164
aI170
aI185
aI212
aI222
aI242
aI249
aI250
aI252
aI253
aI255
aI256
aI257
aI270
aI274
aI282
aI284
aI294
aI306
aI315
aI335
aI336
aI425
asI120
(lp121
I16
aI21
aI259
aI268
aI360
asI121
(lp122
I12
aI32
aI46
aI71
aI93
aI106
aI124
aI125
aI154
aI167
aI213
aI214
aI227
aI237
aI241
aI365
asI122
(lp123
I95
aI175
aI209
aI220
aI310
aI317
aI340
aI342
asI123
(lp124
I39
aI52
aI70
aI85
aI111
aI113
aI114
aI118
aI128
aI133
aI142
aI149
aI168
aI177
aI203
aI216
aI234
aI273
aI276
aI277
aI285
aI292
aI313
aI318
aI321
aI323
aI338
aI356
aI383
aI387
aI404
aI428
asI124
(lp125
I32
aI62
aI93
aI106
aI121
aI154
aI211
aI213
aI214
aI227
aI237
aI290
aI358
aI365
asI125
(lp126
I121
aI213
aI365
aI371
asI126
(lp127
I23
aI43
aI61
aI67
aI72
aI73
aI83
aI103
aI117
aI130
aI131
aI136
aI144
aI148
aI151
aI158
aI198
aI260
aI275
aI277
aI286
aI298
aI312
aI317
aI322
aI341
aI346
aI353
aI387
aI389
aI393
aI434
asI127
(lp128
I6
aI8
aI10
aI15
aI22
aI24
aI31
aI34
aI37
aI38
aI41
aI47
aI48
aI49
aI58
aI60
aI64
aI65
aI80
aI87
aI88
aI90
aI99
aI112
aI137
aI145
aI153
aI163
aI164
aI170
aI174
aI185
aI229
aI239
aI242
aI247
aI248
aI249
aI250
aI252
aI253
aI255
aI256
aI267
aI270
aI274
aI282
aI284
aI294
aI300
aI305
aI306
aI314
aI315
aI335
aI336
aI373
asI128
(lp129
I13
aI18
aI19
aI21
aI39
aI50
aI51
aI55
aI56
aI57
aI81
aI82
aI84
aI94
aI107
aI108
aI111
aI114
aI118
aI123
aI132
aI134
aI138
aI162
aI165
aI166
aI177
aI189
aI195
aI202
aI204
aI206
aI216
aI219
aI223
aI234
aI238
aI244
aI246
aI264
aI272
aI273
aI276
aI285
aI323
aI327
aI328
aI330
aI333
aI404
asI129
(lp130
I136
aI280
aI339
aI351
aI372
aI409
asI130
(lp131
I39
aI61
aI72
aI82
aI83
aI94
aI103
aI126
aI131
aI151
aI206
aI218
aI277
aI285
aI312
aI316
aI322
aI341
aI346
aI355
aI363
aI375
aI387
aI389
aI400
aI414
aI417
asI131
(lp132
I17
aI23
aI26
aI43
aI61
aI67
aI70
aI73
aI83
aI102
aI103
aI113
aI117
aI126
aI130
aI134
aI144
aI151
aI155
aI158
aI189
aI198
aI223
aI252
aI255
aI260
aI275
aI277
aI281
aI306
aI312
aI317
aI318
aI322
aI331
aI341
aI346
aI353
aI397
aI401
asI132
(lp133
I13
aI19
aI55
aI56
aI57
aI81
aI84
aI94
aI102
aI104
aI107
aI111
aI128
aI134
aI138
aI162
aI165
aI166
aI180
aI195
aI201
aI202
aI204
aI206
aI219
aI223
aI238
aI244
aI246
aI264
aI272
aI323
aI328
aI333
aI378
asI133
(lp134
I29
aI70
aI90
aI113
aI114
aI118
aI123
aI149
aI203
aI223
aI265
aI277
aI285
aI292
aI313
aI318
aI321
aI338
aI356
aI363
aI380
aI383
aI387
aI404
asI134
(lp135
I13
aI19
aI21
aI23
aI39
aI51
aI55
aI56
aI57
aI81
aI82
aI83
aI84
aI94
aI102
aI104
aI107
aI108
aI111
aI118
aI128
aI131
aI132
aI138
aI162
aI165
aI166
aI177
aI180
aI195
aI198
aI201
aI202
aI204
aI206
aI219
aI238
aI244
aI246
aI260
aI264
aI272
aI276
aI285
aI323
aI328
aI330
aI333
aI353
aI370
aI378
aI383
aI387
aI404
asI135
(lp136
I23
aI50
aI117
aI155
aI276
aI285
aI346
asI136
(lp137
I45
aI67
aI70
aI72
aI79
aI91
aI109
aI113
aI115
aI118
aI126
aI129
aI146
aI158
aI160
aI165
aI172
aI196
aI260
aI277
aI286
aI298
aI302
aI326
aI331
aI339
aI343
aI351
aI364
aI367
aI370
aI372
aI383
aI392
aI405
aI406
aI420
aI421
asI137
(lp138
I4
aI6
aI8
aI9
aI11
aI14
aI15
aI16
aI22
aI24
aI27
aI33
aI34
aI36
aI37
aI38
aI41
aI47
aI48
aI49
aI53
aI58
aI60
aI63
aI64
aI65
aI69
aI75
aI77
aI80
aI86
aI87
aI88
aI90
aI92
aI96
aI112
aI119
aI127
aI141
aI145
aI153
aI157
aI163
aI164
aI170
aI174
aI179
aI185
aI193
aI212
aI222
aI229
aI239
aI242
aI247
aI248
aI249
aI250
aI251
aI252
aI255
aI256
aI257
aI258
aI267
aI270
aI271
aI274
aI282
aI284
aI294
aI300
aI305
aI306
aI314
aI315
aI335
aI336
aI373
aI425
asI138
(lp139
I13
aI19
aI21
aI39
aI51
aI55
aI56
aI57
aI68
aI81
aI82
aI84
aI94
aI102
aI107
aI108
aI111
aI118
aI128
aI132
aI134
aI162
aI165
aI166
aI177
aI180
aI189
aI195
aI201
aI202
aI204
aI206
aI219
aI224
aI226
aI238
aI244
aI246
aI264
aI272
aI276
aI323
aI328
aI330
aI333
aI378
aI383
aI386
aI430
asI139
(lp140
I7
aI14
aI15
aI47
aI53
aI78
aI86
aI87
aI96
aI100
aI105
aI141
aI145
aI150
aI229
aI253
aI258
aI306
aI407
asI140
(lp141
I5
aI199
aI252
asI141
(lp142
I6
aI22
aI31
aI33
aI37
aI38
aI47
aI48
aI49
aI58
aI65
aI75
aI80
aI86
aI87
aI88
aI105
aI112
aI119
aI137
aI139
aI145
aI163
aI170
aI174
aI185
aI212
aI222
aI228
aI229
aI239
aI247
aI248
aI250
aI253
aI256
aI258
aI270
aI284
aI294
aI305
aI306
aI314
aI335
aI336
aI373
aI407
asI142
(lp143
I70
aI113
aI114
aI123
aI149
aI203
aI285
aI292
aI318
aI321
aI338
aI356
aI380
aI383
aI387
aI404
asI143
(lp144
I159
asI144
(lp145
I23
aI26
aI43
aI67
aI73
aI83
aI103
aI117
aI126
aI131
aI155
aI170
aI198
aI250
aI260
aI263
aI275
aI277
aI298
aI306
aI312
aI317
aI322
aI331
aI341
aI346
asI145
(lp146
I4
aI8
aI15
aI16
aI22
aI24
aI27
aI31
aI34
aI37
aI38
aI48
aI49
aI58
aI64
aI65
aI69
aI75
aI77
aI80
aI88
aI100
aI105
aI119
aI127
aI137
aI139
aI141
aI157
aI163
aI170
aI174
aI179
aI228
aI229
aI242
aI248
aI249
aI250
aI252
aI253
aI255
aI256
aI257
aI258
aI269
aI270
aI271
aI274
aI282
aI284
aI300
aI306
aI335
aI336
aI373
aI407
asI146
(lp147
I61
aI91
aI108
aI115
aI136
aI148
aI169
aI223
aI266
aI277
aI330
aI341
aI343
aI364
aI370
aI376
aI405
aI406
aI421
asI147
(lp148
I175
aI184
aI209
aI301
aI385
aI434
asI148
(lp149
I0
aI2
aI23
aI30
aI66
aI70
aI90
aI95
aI103
aI126
aI146
aI176
aI191
aI232
aI261
aI266
aI269
aI291
aI324
aI334
aI361
aI376
aI413
asI149
(lp150
I52
aI70
aI113
aI114
aI123
aI133
aI142
aI168
aI203
aI273
aI292
aI318
aI321
aI338
aI356
aI380
aI383
aI387
aI404
aI428
asI150
(lp151
I7
aI53
aI86
aI88
aI96
aI108
aI139
aI254
aI255
aI258
asI151
(lp152
I23
aI26
aI43
aI61
aI67
aI73
aI83
aI103
aI113
aI117
aI126
aI130
aI131
aI158
aI218
aI260
aI275
aI277
aI298
aI301
aI307
aI312
aI317
aI318
aI322
aI331
aI332
aI341
aI346
aI348
aI349
aI353
aI367
aI389
aI414
asI152
(lp153
I112
aI228
aI307
aI324
aI359
asI153
(lp154
I4
aI6
aI8
aI9
aI10
aI11
aI14
aI15
aI16
aI22
aI24
aI33
aI37
aI47
aI48
aI49
aI58
aI60
aI64
aI65
aI69
aI75
aI77
aI80
aI87
aI88
aI90
aI96
aI99
aI108
aI110
aI112
aI119
aI127
aI137
aI157
aI163
aI164
aI170
aI179
aI185
aI193
aI222
aI228
aI229
aI235
aI239
aI242
aI247
aI249
aI250
aI252
aI253
aI255
aI256
aI257
aI258
aI270
aI271
aI274
aI282
aI284
aI294
aI300
aI306
aI314
aI315
aI335
aI336
aI373
asI154
(lp155
I12
aI32
aI62
aI74
aI93
aI121
aI124
aI211
aI213
aI227
aI241
aI365
aI371
asI155
(lp156
I23
aI67
aI70
aI83
aI108
aI109
aI131
aI135
aI144
aI198
aI260
aI277
aI309
aI312
aI317
aI346
aI348
aI355
asI156
(lp157
I28
aI35
aI85
aI194
aI243
aI245
aI295
aI364
aI432
asI157
(lp158
I6
aI7
aI8
aI10
aI11
aI12
aI14
aI15
aI16
aI22
aI24
aI25
aI27
aI34
aI38
aI47
aI48
aI49
aI65
aI69
aI75
aI80
aI87
aI88
aI90
aI96
aI101
aI108
aI110
aI112
aI137
aI145
aI153
aI163
aI164
aI170
aI222
aI228
aI235
aI239
aI242
aI247
aI248
aI249
aI250
aI252
aI253
aI255
aI256
aI269
aI274
aI275
aI282
aI300
aI305
aI306
aI314
aI335
aI336
aI373
aI425
asI158
(lp159
I23
aI43
aI45
aI61
aI67
aI73
aI83
aI91
aI103
aI114
aI117
aI126
aI131
aI136
aI151
aI198
aI218
aI260
aI275
aI277
aI281
aI298
aI307
aI312
aI317
aI322
aI331
aI332
aI341
aI346
aI389
aI390
aI392
aI414
aI415
aI419
aI434
asI159
(lp160
I7
aI78
aI90
aI100
aI110
aI112
aI115
aI143
aI216
aI228
aI235
aI249
aI277
aI330
aI349
asI160
(lp161
I136
aI162
aI277
aI351
aI372
aI387
aI389
aI397
asI161
(lp162
I385
asI162
(lp163
I13
aI19
aI21
aI39
aI51
aI55
aI56
aI57
aI81
aI82
aI84
aI94
aI102
aI104
aI107
aI108
aI111
aI118
aI128
aI132
aI134
aI138
aI160
aI165
aI166
aI177
aI180
aI195
aI201
aI202
aI204
aI206
aI219
aI238
aI244
aI246
aI264
aI272
aI276
aI323
aI328
aI330
aI333
aI363
aI378
asI163
(lp164
I8
aI10
aI11
aI12
aI15
aI16
aI22
aI24
aI25
aI27
aI31
aI34
aI37
aI38
aI41
aI47
aI48
aI49
aI58
aI64
aI65
aI69
aI75
aI80
aI87
aI88
aI90
aI92
aI96
aI100
aI101
aI110
aI127
aI137
aI141
aI145
aI153
aI157
aI164
aI170
aI174
aI179
aI193
aI212
aI222
aI228
aI229
aI235
aI239
aI242
aI247
aI248
aI249
aI250
aI252
aI253
aI255
aI256
aI258
aI269
aI270
aI274
aI282
aI294
aI300
aI305
aI306
aI314
aI336
aI373
aI425
asI164
(lp165
I4
aI6
aI7
aI8
aI10
aI12
aI15
aI16
aI24
aI27
aI31
aI33
aI34
aI38
aI47
aI48
aI49
aI58
aI64
aI65
aI69
aI77
aI80
aI87
aI88
aI90
aI96
aI101
aI110
aI112
aI119
aI127
aI137
aI153
aI157
aI163
aI170
aI222
aI235
aI239
aI242
aI246
aI247
aI248
aI249
aI250
aI252
aI253
aI255
aI256
aI274
aI282
aI284
aI300
aI314
aI336
asI165
(lp166
I13
aI19
aI21
aI39
aI45
aI51
aI55
aI56
aI57
aI81
aI82
aI84
aI94
aI104
aI107
aI108
aI111
aI118
aI128
aI132
aI134
aI136
aI138
aI162
aI166
aI177
aI180
aI195
aI202
aI204
aI206
aI219
aI238
aI244
aI246
aI264
aI272
aI276
aI323
aI328
aI330
aI333
aI378
asI166
(lp167
I19
aI39
aI55
aI56
aI57
aI81
aI82
aI84
aI94
aI102
aI108
aI111
aI118
aI128
aI132
aI134
aI138
aI162
aI165
aI180
aI189
aI195
aI201
aI202
aI204
aI206
aI219
aI224
aI238
aI244
aI246
aI264
aI272
aI323
aI328
aI330
aI333
aI378
aI411
asI167
(lp168
I93
aI121
aI171
aI213
aI365
asI168
(lp169
I18
aI70
aI113
aI114
aI118
aI123
aI149
aI203
aI234
aI292
aI318
aI321
aI338
aI356
aI363
aI380
aI383
aI387
aI404
asI169
(lp170
I17
aI42
aI57
aI61
aI70
aI91
aI115
aI146
aI223
aI266
aI272
aI277
aI296
aI302
aI307
aI349
aI372
aI397
asI170
(lp171
I4
aI6
aI8
aI11
aI15
aI16
aI22
aI33
aI36
aI37
aI38
aI47
aI48
aI49
aI58
aI60
aI64
aI65
aI75
aI80
aI87
aI88
aI90
aI99
aI100
aI112
aI119
aI127
aI137
aI141
aI144
aI145
aI153
aI157
aI163
aI164
aI174
aI179
aI185
aI212
aI222
aI229
aI235
aI239
aI242
aI247
aI249
aI250
aI252
aI255
aI256
aI270
aI271
aI274
aI282
aI294
aI300
aI305
aI306
aI314
aI315
aI335
aI336
aI373
asI171
(lp172
I62
aI167
aI365
aI371
asI172
(lp173
I45
aI79
aI91
aI136
aI277
aI320
aI326
aI331
aI343
aI353
aI364
aI367
aI372
aI420
aI421
aI422
aI427
asI173
(lp174
I82
aI91
aI202
aI277
aI323
aI367
aI386
aI406
aI429
asI174
(lp175
I7
aI9
aI10
aI16
aI22
aI37
aI38
aI47
aI49
aI58
aI64
aI65
aI69
aI75
aI80
aI87
aI112
aI127
aI137
aI141
aI145
aI163
aI170
aI228
aI229
aI239
aI247
aI248
aI249
aI250
aI252
aI253
aI255
aI270
aI271
aI274
aI282
aI284
aI294
aI300
aI305
aI306
aI314
aI330
aI336
aI373
asI175
(lp176
I0
aI95
aI122
aI147
aI184
aI209
aI233
aI301
aI309
aI310
aI340
aI342
asI176
(lp177
I2
aI30
aI66
aI95
aI148
aI191
aI232
aI266
aI275
aI291
aI324
aI334
aI376
aI412
asI177
(lp178
I13
aI19
aI21
aI39
aI51
aI55
aI56
aI57
aI81
aI84
aI94
aI104
aI107
aI108
aI111
aI123
aI128
aI134
aI138
aI162
aI165
aI180
aI195
aI202
aI204
aI206
aI219
aI238
aI244
aI246
aI260
aI272
aI276
aI323
aI328
aI330
aI333
aI378
aI386
asI178
(lp179
I19
aI100
aI432
asI179
(lp180
I6
aI8
aI15
aI16
aI22
aI36
aI37
aI38
aI41
aI47
aI48
aI49
aI58
aI60
aI64
aI65
aI75
aI80
aI92
aI137
aI145
aI153
aI163
aI170
aI212
aI222
aI247
aI248
aI249
aI250
aI253
aI282
aI284
aI294
aI314
aI315
aI373
aI425
asI180
(lp181
I13
aI19
aI21
aI39
aI51
aI55
aI56
aI57
aI81
aI82
aI84
aI94
aI102
aI107
aI108
aI111
aI114
aI118
aI132
aI134
aI138
aI162
aI165
aI166
aI177
aI195
aI201
aI202
aI204
aI206
aI219
aI238
aI244
aI246
aI264
aI272
aI276
aI285
aI323
aI328
aI330
aI333
aI366
aI378
aI383
aI387
asI181
(lp182
I40
aI79
aI85
aI182
aI194
aI243
aI295
aI299
aI395
aI432
asI182
(lp183
I22
aI31
aI47
aI79
aI96
aI181
aI194
aI243
aI270
aI299
aI355
aI432
asI183
(lp184
I45
aI245
aI330
aI361
aI372
aI402
asI184
(lp185
I147
aI175
aI209
aI301
aI342
asI185
(lp186
I6
aI22
aI36
aI37
aI41
aI48
aI49
aI58
aI60
aI64
aI65
aI69
aI99
aI112
aI119
aI127
aI137
aI141
aI153
aI170
aI193
aI212
aI222
aI229
aI242
aI249
aI251
aI270
aI271
aI284
aI294
aI315
aI373
asI186
(lp187
I90
aI224
aI321
aI360
aI395
aI404
aI405
aI419
asI187
(lp188
I216
aI226
aI302
aI313
aI337
aI350
aI352
aI394
asI188
(lp189
I208
aI288
asI189
(lp190
I68
aI83
aI128
aI131
aI138
aI166
aI202
aI224
aI313
aI323
aI380
aI386
aI430
asI190
(lp191
I67
aI215
aI230
aI245
aI260
aI369
aI378
asI191
(lp192
I2
aI30
aI66
aI95
aI148
aI176
aI232
aI291
aI311
aI324
aI325
aI334
aI376
asI192
(lp193
I70
aI102
aI113
aI238
aI241
aI244
aI276
aI285
aI387
aI404
asI193
(lp194
I22
aI36
aI37
aI41
aI48
aI49
aI58
aI60
aI64
aI65
aI92
aI137
aI153
aI163
aI185
aI212
aI222
aI239
aI247
aI249
aI251
aI253
aI254
aI257
aI271
aI284
aI294
aI315
asI194
(lp195
I28
aI35
aI40
aI79
aI85
aI156
aI181
aI182
aI243
aI295
aI299
aI369
aI395
aI432
asI195
(lp196
I13
aI19
aI21
aI39
aI51
aI55
aI56
aI57
aI81
aI82
aI84
aI94
aI102
aI104
aI107
aI108
aI111
aI118
aI128
aI132
aI134
aI138
aI162
aI165
aI166
aI177
aI180
aI201
aI202
aI204
aI206
aI219
aI234
aI238
aI244
aI246
aI264
aI272
aI276
aI323
aI328
aI330
aI333
aI378
aI383
asI196
(lp197
I118
aI136
aI206
aI245
aI254
aI323
asI197
(lp198
I304
asI198
(lp199
I17
aI23
aI43
aI67
aI73
aI83
aI103
aI109
aI117
aI126
aI131
aI134
aI144
aI155
aI158
aI217
aI260
aI275
aI277
aI278
aI281
aI298
aI307
aI312
aI317
aI322
aI332
aI334
aI341
aI346
aI389
aI415
aI434
asI199
(lp200
I140
aI245
aI252
aI347
asI200
(lp201
I5
aI54
aI263
asI201
(lp202
I51
aI55
aI56
aI81
aI82
aI94
aI102
aI104
aI107
aI108
aI111
aI118
aI132
aI134
aI138
aI162
aI166
aI180
aI195
aI202
aI204
aI219
aI238
aI244
aI246
aI272
aI275
aI276
aI323
aI328
aI330
aI333
aI337
aI352
aI378
aI383
asI202
(lp203
I13
aI19
aI21
aI39
aI51
aI55
aI56
aI57
aI68
aI81
aI82
aI84
aI94
aI102
aI104
aI107
aI108
aI111
aI118
aI128
aI132
aI134
aI138
aI162
aI165
aI166
aI173
aI177
aI180
aI189
aI195
aI201
aI204
aI206
aI216
aI219
aI238
aI244
aI246
aI264
aI272
aI276
aI323
aI328
aI330
aI333
aI378
aI383
aI386
asI203
(lp204
I52
aI70
aI114
aI123
aI133
aI142
aI149
aI168
aI273
aI292
aI318
aI321
aI323
aI338
aI356
aI380
aI383
aI404
aI409
aI428
asI204
(lp205
I13
aI19
aI21
aI39
aI50
aI51
aI55
aI56
aI57
aI81
aI82
aI84
aI94
aI102
aI107
aI108
aI111
aI118
aI128
aI132
aI134
aI138
aI162
aI165
aI166
aI177
aI180
aI195
aI201
aI202
aI206
aI219
aI238
aI244
aI246
aI272
aI276
aI285
aI323
aI328
aI330
aI333
aI378
aI383
asI205
(lp206
I70
aI113
aI210
aI278
aI318
aI345
aI383
aI387
aI400
aI402
asI206
(lp207
I13
aI19
aI21
aI39
aI51
aI55
aI56
aI57
aI81
aI82
aI84
aI94
aI102
aI104
aI111
aI118
aI128
aI130
aI132
aI134
aI138
aI162
aI165
aI166
aI177
aI180
aI195
aI196
aI202
aI204
aI219
aI238
aI246
aI249
aI264
aI272
aI276
aI305
aI323
aI328
aI330
aI333
aI378
aI383
aI387
asI207
(lp208
sI208
(lp209
I188
aI288
asI209
(lp210
I0
aI122
aI147
aI175
aI184
aI301
aI342
aI434
asI210
(lp211
I205
aI279
aI387
aI400
asI211
(lp212
I32
aI62
aI74
aI93
aI106
aI124
aI154
aI213
aI227
aI237
aI290
asI212
(lp213
I6
aI22
aI31
aI36
aI37
aI41
aI48
aI49
aI58
aI60
aI64
aI65
aI69
aI75
aI77
aI92
aI112
aI119
aI137
aI141
aI163
aI170
aI179
aI185
aI193
aI242
aI249
aI250
aI251
aI257
aI270
aI271
aI284
aI294
aI306
aI315
aI336
aI360
asI213
(lp214
I32
aI46
aI62
aI74
aI93
aI106
aI121
aI124
aI125
aI154
aI167
aI211
aI214
aI227
aI237
aI241
aI283
aI358
aI365
aI396
asI214
(lp215
I32
aI46
aI62
aI71
aI74
aI93
aI106
aI121
aI124
aI213
aI227
aI237
aI241
asI215
(lp216
I67
aI190
aI218
aI230
aI245
aI260
aI346
aI348
aI369
asI216
(lp217
I73
aI123
aI128
aI159
aI187
aI202
aI223
aI226
aI313
aI318
aI323
aI337
aI338
aI350
aI352
aI394
asI217
(lp218
I0
aI23
aI79
aI95
aI198
aI281
aI301
aI309
aI312
aI322
aI326
aI412
aI419
aI434
asI218
(lp219
I23
aI61
aI103
aI117
aI130
aI151
aI158
aI215
aI298
aI311
aI332
aI341
aI348
aI367
aI382
aI389
aI405
aI414
aI415
asI219
(lp220
I7
aI13
aI19
aI21
aI39
aI51
aI55
aI56
aI57
aI81
aI82
aI84
aI94
aI102
aI104
aI107
aI108
aI111
aI118
aI128
aI132
aI134
aI138
aI162
aI165
aI166
aI177
aI180
aI195
aI201
aI202
aI204
aI206
aI246
aI264
aI272
aI276
aI306
aI323
aI328
aI330
aI333
aI378
aI383
asI220
(lp221
I72
aI122
aI277
aI286
aI298
aI301
aI393
aI434
asI221
(lp222
I97
aI236
aI319
asI222
(lp223
I8
aI9
aI16
aI22
aI24
aI25
aI27
aI33
aI36
aI38
aI47
aI48
aI49
aI53
aI58
aI64
aI65
aI69
aI75
aI77
aI80
aI87
aI88
aI90
aI92
aI96
aI99
aI119
aI137
aI141
aI153
aI157
aI163
aI164
aI170
aI179
aI185
aI193
aI228
aI229
aI239
aI242
aI247
aI249
aI250
aI252
aI253
aI256
aI257
aI258
aI267
aI271
aI274
aI282
aI284
aI300
aI305
aI306
aI314
aI330
aI335
aI336
aI373
asI223
(lp224
I17
aI42
aI61
aI68
aI70
aI98
aI114
aI128
aI131
aI132
aI133
aI146
aI169
aI216
aI276
aI277
aI313
aI338
aI341
aI347
aI387
aI397
aI400
asI224
(lp225
I68
aI138
aI166
aI186
aI189
aI268
aI275
aI323
aI333
aI360
aI386
asI225
(lp226
sI226
(lp227
I117
aI138
aI187
aI216
aI313
aI337
aI350
aI352
aI394
asI227
(lp228
I15
aI32
aI46
aI71
aI93
aI106
aI121
aI124
aI154
aI211
aI213
aI214
aI237
aI290
aI358
aI371
aI396
asI228
(lp229
I14
aI15
aI24
aI25
aI27
aI31
aI34
aI37
aI44
aI53
aI75
aI78
aI80
aI88
aI90
aI96
aI100
aI105
aI110
aI112
aI141
aI145
aI152
aI153
aI157
aI159
aI163
aI174
aI222
aI235
aI247
aI255
aI258
aI267
aI269
aI274
aI300
aI305
aI306
aI330
aI373
aI407
asI229
(lp230
I4
aI6
aI15
aI16
aI22
aI27
aI31
aI37
aI41
aI44
aI47
aI48
aI53
aI58
aI60
aI64
aI75
aI77
aI80
aI87
aI112
aI127
aI137
aI139
aI141
aI145
aI153
aI163
aI170
aI174
aI185
aI222
aI247
aI249
aI250
aI255
aI256
aI258
aI270
aI271
aI274
aI284
aI300
aI305
aI306
aI335
asI230
(lp231
I67
aI190
aI215
aI245
aI260
aI346
aI369
asI231
(lp232
I342
aI399
asI232
(lp233
I2
aI30
aI66
aI95
aI148
aI176
aI191
aI266
aI291
aI334
aI376
asI233
(lp234
I175
aI342
asI234
(lp235
I7
aI50
aI51
aI108
aI113
aI114
aI116
aI123
aI128
aI168
aI195
aI246
aI276
aI321
aI345
aI383
aI387
aI400
aI404
aI409
asI235
(lp236
I7
aI9
aI10
aI11
aI12
aI14
aI16
aI29
aI31
aI38
aI49
aI69
aI78
aI80
aI87
aI88
aI100
aI101
aI110
aI112
aI153
aI157
aI159
aI163
aI164
aI170
aI228
aI247
aI249
aI251
aI252
aI255
aI256
aI274
aI277
aI282
aI306
aI330
aI373
asI236
(lp237
I221
aI319
asI237
(lp238
I32
aI71
aI74
aI93
aI121
aI124
aI211
aI213
aI214
aI227
aI241
aI361
aI396
asI238
(lp239
I13
aI19
aI21
aI39
aI55
aI56
aI57
aI81
aI82
aI84
aI94
aI102
aI104
aI107
aI108
aI111
aI118
aI128
aI132
aI134
aI138
aI162
aI165
aI166
aI177
aI180
aI192
aI195
aI201
aI202
aI204
aI206
aI244
aI246
aI264
aI272
aI276
aI323
aI328
aI330
aI333
aI378
aI383
asI239
(lp240
I7
aI8
aI10
aI11
aI16
aI22
aI24
aI25
aI27
aI33
aI34
aI37
aI38
aI47
aI48
aI49
aI58
aI64
aI65
aI69
aI75
aI80
aI87
aI90
aI92
aI101
aI110
aI112
aI127
aI137
aI141
aI153
aI157
aI163
aI164
aI170
aI174
aI193
aI222
aI242
aI247
aI248
aI249
aI250
aI252
aI253
aI255
aI256
aI270
aI274
aI282
aI300
aI306
aI314
aI315
aI330
aI336
aI373
aI425
asI240
(lp241
I103
aI277
aI278
aI387
aI401
asI241
(lp242
I12
aI32
aI46
aI90
aI106
aI121
aI154
aI192
aI213
aI214
aI237
aI365
aI371
aI396
asI242
(lp243
I4
aI6
aI7
aI8
aI9
aI10
aI11
aI14
aI16
aI25
aI27
aI38
aI41
aI47
aI48
aI49
aI58
aI64
aI65
aI69
aI77
aI80
aI86
aI90
aI99
aI101
aI108
aI112
aI119
aI127
aI137
aI145
aI153
aI157
aI163
aI164
aI170
aI185
aI212
aI222
aI239
aI247
aI248
aI249
aI250
aI251
aI252
aI253
aI254
aI256
aI270
aI282
aI294
aI306
aI314
aI315
aI330
aI336
aI373
aI425
asI243
(lp244
I28
aI40
aI79
aI85
aI156
aI181
aI182
aI194
aI295
aI299
aI432
asI244
(lp245
I13
aI19
aI21
aI39
aI51
aI55
aI56
aI57
aI81
aI82
aI84
aI94
aI102
aI104
aI111
aI118
aI128
aI132
aI134
aI138
aI162
aI165
aI166
aI177
aI180
aI192
aI195
aI201
aI202
aI204
aI238
aI246
aI264
aI272
aI276
aI285
aI323
aI328
aI330
aI333
aI378
aI383
asI245
(lp246
I40
aI67
aI116
aI156
aI183
aI190
aI196
aI199
aI215
aI230
aI259
aI285
aI346
aI380
aI401
asI246
(lp247
I7
aI8
aI10
aI12
aI13
aI19
aI21
aI34
aI39
aI51
aI55
aI56
aI57
aI81
aI82
aI84
aI90
aI94
aI101
aI102
aI104
aI107
aI108
aI110
aI111
aI118
aI128
aI132
aI134
aI138
aI162
aI164
aI165
aI166
aI177
aI180
aI195
aI201
aI202
aI204
aI206
aI219
aI234
aI238
aI244
aI247
aI248
aI249
aI250
aI252
aI264
aI272
aI276
aI305
aI306
aI323
aI328
aI330
aI333
aI378
asI247
(lp248
I4
aI8
aI9
aI10
aI11
aI15
aI16
aI22
aI27
aI34
aI37
aI38
aI47
aI48
aI49
aI58
aI64
aI65
aI69
aI75
aI77
aI80
aI87
aI88
aI90
aI92
aI96
aI100
aI101
aI110
aI112
aI127
aI137
aI141
aI153
aI157
aI163
aI164
aI170
aI174
aI179
aI193
aI222
aI228
aI229
aI235
aI239
aI242
aI246
aI248
aI249
aI250
aI252
aI253
aI254
aI255
aI256
aI270
aI271
aI274
aI282
aI284
aI300
aI305
aI306
aI314
aI315
aI330
aI335
aI336
aI373
aI425
asI248
(lp249
I4
aI7
aI8
aI10
aI11
aI12
aI16
aI24
aI25
aI27
aI34
aI37
aI38
aI47
aI48
aI49
aI53
aI58
aI64
aI65
aI69
aI75
aI78
aI80
aI87
aI88
aI90
aI96
aI100
aI108
aI110
aI127
aI137
aI141
aI145
aI157
aI163
aI164
aI174
aI179
aI239
aI242
aI246
aI247
aI249
aI250
aI252
aI253
aI255
aI269
aI274
aI282
aI300
aI305
aI306
aI314
aI335
aI336
aI373
asI249
(lp250
I4
aI6
aI7
aI8
aI9
aI10
aI11
aI12
aI15
aI16
aI22
aI24
aI25
aI27
aI31
aI33
aI34
aI37
aI38
aI41
aI47
aI48
aI49
aI58
aI60
aI64
aI65
aI69
aI75
aI77
aI80
aI87
aI90
aI96
aI100
aI101
aI108
aI110
aI112
aI119
aI127
aI137
aI145
aI153
aI157
aI159
aI163
aI164
aI170
aI174
aI179
aI185
aI193
aI206
aI212
aI222
aI229
aI235
aI239
aI242
aI246
aI247
aI248
aI250
aI251
aI252
aI253
aI254
aI255
aI256
aI270
aI271
aI274
aI282
aI284
aI294
aI300
aI305
aI306
aI314
aI315
aI330
aI335
aI336
aI373
asI250
(lp251
I4
aI6
aI7
aI8
aI9
aI10
aI11
aI12
aI15
aI16
aI22
aI24
aI25
aI27
aI31
aI33
aI34
aI37
aI38
aI41
aI44
aI47
aI48
aI49
aI53
aI58
aI64
aI65
aI69
aI75
aI77
aI78
aI80
aI86
aI87
aI88
aI90
aI96
aI100
aI101
aI105
aI108
aI110
aI112
aI119
aI127
aI137
aI141
aI144
aI145
aI153
aI157
aI163
aI164
aI170
aI174
aI179
aI212
aI222
aI229
aI239
aI242
aI246
aI247
aI248
aI249
aI251
aI252
aI253
aI254
aI255
aI256
aI257
aI267
aI269
aI270
aI274
aI282
aI284
aI293
aI294
aI300
aI306
aI314
aI315
aI330
aI335
aI336
aI373
aI425
asI251
(lp252
I4
aI6
aI15
aI16
aI22
aI36
aI41
aI48
aI58
aI60
aI64
aI65
aI69
aI77
aI87
aI90
aI112
aI137
aI185
aI193
aI212
aI235
aI242
aI249
aI250
aI252
aI254
aI270
aI271
aI284
aI294
aI306
aI315
aI336
asI252
(lp253
I4
aI6
aI8
aI9
aI10
aI14
aI15
aI16
aI22
aI27
aI31
aI33
aI34
aI38
aI47
aI48
aI49
aI51
aI53
aI58
aI60
aI64
aI65
aI69
aI75
aI77
aI80
aI84
aI86
aI87
aI90
aI96
aI101
aI104
aI107
aI108
aI110
aI119
aI127
aI131
aI137
aI140
aI145
aI153
aI157
aI163
aI164
aI170
aI174
aI199
aI222
aI235
aI239
aI242
aI246
aI247
aI248
aI249
aI250
aI251
aI253
aI254
aI255
aI256
aI259
aI270
aI274
aI282
aI300
aI306
aI314
aI335
aI336
aI347
aI373
asI253
(lp254
I8
aI9
aI10
aI11
aI12
aI16
aI22
aI24
aI27
aI34
aI36
aI38
aI47
aI48
aI49
aI58
aI60
aI63
aI65
aI69
aI78
aI80
aI87
aI90
aI96
aI101
aI105
aI112
aI119
aI127
aI139
aI141
aI145
aI153
aI157
aI163
aI164
aI174
aI179
aI193
aI222
aI239
aI242
aI247
aI248
aI249
aI250
aI252
aI254
aI255
aI256
aI257
aI269
aI274
aI282
aI284
aI294
aI300
aI305
aI306
aI314
aI330
aI335
aI373
asI254
(lp255
I9
aI16
aI33
aI47
aI65
aI69
aI84
aI150
aI193
aI196
aI242
aI247
aI249
aI250
aI251
aI252
aI253
aI255
aI256
aI269
aI305
aI336
aI425
aI436
asI255
(lp256
I4
aI6
aI7
aI8
aI9
aI10
aI11
aI14
aI15
aI16
aI27
aI31
aI34
aI47
aI48
aI58
aI64
aI65
aI69
aI77
aI80
aI86
aI87
aI88
aI90
aI100
aI108
aI112
aI119
aI127
aI131
aI137
aI145
aI150
aI153
aI157
aI163
aI164
aI170
aI174
aI228
aI229
aI235
aI239
aI247
aI248
aI249
aI250
aI252
aI253
aI254
aI256
aI258
aI269
aI270
aI274
aI282
aI300
aI305
aI306
aI314
aI330
aI335
aI336
aI373
aI395
aI425
asI256
(lp257
I4
aI8
aI10
aI11
aI12
aI14
aI15
aI16
aI22
aI24
aI25
aI27
aI34
aI37
aI38
aI47
aI48
aI49
aI53
aI58
aI64
aI65
aI69
aI75
aI77
aI80
aI86
aI87
aI88
aI90
aI112
aI119
aI127
aI137
aI141
aI145
aI153
aI157
aI163
aI164
aI170
aI222
aI229
aI235
aI239
aI242
aI247
aI249
aI250
aI252
aI253
aI254
aI255
aI257
aI270
aI274
aI282
aI300
aI306
aI314
aI335
aI336
aI373
asI257
(lp258
I6
aI22
aI27
aI36
aI47
aI48
aI49
aI60
aI64
aI65
aI69
aI77
aI88
aI92
aI99
aI112
aI119
aI137
aI145
aI153
aI193
aI212
aI222
aI250
aI253
aI256
aI270
aI282
aI284
aI294
aI315
aI335
aI336
aI373
asI258
(lp259
I7
aI24
aI27
aI53
aI78
aI80
aI86
aI87
aI88
aI90
aI92
aI96
aI100
aI108
aI137
aI139
aI141
aI145
aI150
aI153
aI163
aI222
aI228
aI229
aI255
aI269
aI300
aI305
aI306
aI335
aI336
asI259
(lp260
I65
aI120
aI245
aI252
aI360
asI260
(lp261
I23
aI43
aI54
aI61
aI67
aI73
aI83
aI91
aI103
aI107
aI115
aI117
aI126
aI131
aI134
aI136
aI144
aI151
aI155
aI158
aI177
aI190
aI198
aI215
aI230
aI275
aI277
aI312
aI317
aI331
aI341
aI346
aI353
aI429
aI434
asI261
(lp262
I4
aI30
aI148
aI291
aI312
aI334
aI376
asI262
(lp263
I3
asI263
(lp264
I59
aI144
aI200
aI320
aI327
asI264
(lp265
I13
aI19
aI39
aI55
aI56
aI57
aI81
aI82
aI84
aI94
aI102
aI107
aI108
aI111
aI128
aI132
aI134
aI138
aI162
aI165
aI166
aI180
aI195
aI202
aI206
aI219
aI238
aI244
aI246
aI272
aI276
aI323
aI326
aI328
aI333
aI378
aI383
aI397
asI265
(lp266
I20
aI116
aI133
aI380
asI266
(lp267
I0
aI2
aI30
aI56
aI66
aI95
aI146
aI148
aI169
aI176
aI232
aI291
aI324
aI334
aI376
asI267
(lp268
I6
aI22
aI31
aI44
aI48
aI63
aI64
aI65
aI69
aI77
aI87
aI88
aI90
aI96
aI100
aI112
aI127
aI137
aI222
aI228
aI250
aI270
aI274
aI284
asI268
(lp269
I120
aI224
asI269
(lp270
I4
aI14
aI16
aI22
aI24
aI25
aI27
aI29
aI31
aI34
aI37
aI38
aI53
aI58
aI65
aI78
aI79
aI87
aI88
aI90
aI100
aI102
aI105
aI108
aI112
aI145
aI148
aI157
aI163
aI228
aI248
aI250
aI253
aI254
aI255
aI258
aI270
aI271
aI300
aI305
aI306
aI336
aI361
aI373
asI270
(lp271
I6
aI8
aI15
aI16
aI22
aI31
aI37
aI38
aI47
aI58
aI60
aI64
aI65
aI69
aI77
aI80
aI86
aI87
aI88
aI90
aI92
aI99
aI112
aI119
aI127
aI137
aI141
aI145
aI153
aI163
aI170
aI174
aI182
aI185
aI212
aI229
aI239
aI242
aI247
aI249
aI250
aI251
aI252
aI255
aI256
aI257
aI267
aI269
aI271
aI274
aI282
aI284
aI294
aI305
aI306
aI314
aI315
aI335
aI336
asI271
(lp272
I4
aI6
aI22
aI36
aI37
aI41
aI47
aI48
aI49
aI58
aI60
aI64
aI65
aI75
aI77
aI92
aI112
aI137
aI145
aI153
aI170
aI174
aI185
aI193
aI212
aI222
aI229
aI247
aI249
aI251
aI269
aI270
aI284
aI294
aI305
aI306
aI315
aI336
aI373
asI272
(lp273
I13
aI19
aI39
aI51
aI55
aI56
aI57
aI81
aI82
aI84
aI91
aI94
aI104
aI107
aI108
aI111
aI114
aI118
aI128
aI132
aI134
aI138
aI162
aI165
aI166
aI169
aI177
aI180
aI195
aI201
aI202
aI204
aI206
aI219
aI238
aI244
aI246
aI264
aI276
aI296
aI299
aI323
aI328
aI330
aI333
aI378
asI273
(lp274
I70
aI113
aI114
aI118
aI123
aI128
aI149
aI203
aI285
aI292
aI318
aI321
aI338
aI356
aI380
aI383
aI387
aI404
aI406
asI274
(lp275
I8
aI10
aI11
aI15
aI16
aI22
aI24
aI27
aI31
aI34
aI37
aI38
aI47
aI48
aI49
aI58
aI63
aI65
aI69
aI75
aI80
aI86
aI87
aI88
aI90
aI92
aI96
aI108
aI110
aI112
aI119
aI127
aI137
aI145
aI153
aI157
aI163
aI164
aI170
aI174
aI222
aI228
aI229
aI235
aI239
aI247
aI248
aI249
aI250
aI252
aI253
aI255
aI256
aI267
aI270
aI282
aI284
aI300
aI305
aI306
aI314
aI315
aI336
aI373
asI275
(lp276
I7
aI23
aI43
aI57
aI61
aI67
aI73
aI83
aI103
aI117
aI126
aI131
aI144
aI151
aI157
aI158
aI176
aI198
aI201
aI224
aI260
aI277
aI312
aI317
aI331
aI341
aI346
aI349
aI378
aI397
aI434
asI276
(lp277
I13
aI19
aI21
aI39
aI51
aI56
aI57
aI70
aI81
aI82
aI84
aI94
aI102
aI104
aI107
aI108
aI111
aI113
aI114
aI116
aI117
aI118
aI123
aI128
aI134
aI135
aI138
aI162
aI165
aI177
aI180
aI192
aI195
aI201
aI202
aI204
aI206
aI219
aI223
aI234
aI238
aI244
aI246
aI264
aI272
aI277
aI285
aI292
aI323
aI328
aI330
aI333
aI363
aI378
aI380
aI383
aI387
aI400
aI404
aI409
aI428
asI277
(lp278
I7
aI17
aI21
aI23
aI26
aI42
aI43
aI45
aI61
aI67
aI70
aI72
aI73
aI79
aI83
aI91
aI98
aI103
aI109
aI113
aI115
aI117
aI118
aI123
aI126
aI130
aI131
aI133
aI136
aI144
aI146
aI151
aI155
aI158
aI159
aI160
aI169
aI172
aI173
aI198
aI220
aI223
aI235
aI240
aI260
aI275
aI276
aI285
aI286
aI292
aI296
aI298
aI301
aI302
aI311
aI312
aI313
aI317
aI320
aI322
aI326
aI330
aI331
aI332
aI341
aI343
aI346
aI348
aI351
aI353
aI364
aI366
aI367
aI370
aI372
aI382
aI383
aI385
aI389
aI393
aI397
aI401
aI404
aI405
aI406
aI418
aI419
aI420
aI421
aI422
aI427
aI434
asI278
(lp279
I23
aI198
aI205
aI240
aI312
aI316
aI317
aI332
aI341
aI343
aI346
aI413
aI414
aI421
asI279
(lp280
I210
aI404
asI280
(lp281
I129
aI339
aI351
aI372
aI374
aI378
aI409
asI281
(lp282
I67
aI131
aI158
aI198
aI217
aI317
aI346
asI282
(lp283
I6
aI8
aI10
aI11
aI15
aI16
aI22
aI27
aI33
aI34
aI37
aI47
aI48
aI49
aI58
aI65
aI69
aI80
aI87
aI96
aI99
aI101
aI110
aI112
aI119
aI127
aI137
aI145
aI153
aI157
aI163
aI164
aI170
aI174
aI179
aI222
aI235
aI239
aI242
aI247
aI248
aI249
aI250
aI252
aI253
aI255
aI256
aI257
aI270
aI274
aI300
aI314
aI330
aI336
aI373
asI283
(lp284
I12
aI213
aI365
aI371
asI284
(lp285
I6
aI8
aI15
aI16
aI22
aI31
aI37
aI38
aI41
aI44
aI47
aI48
aI49
aI58
aI60
aI64
aI65
aI69
aI75
aI77
aI80
aI83
aI86
aI87
aI90
aI92
aI105
aI112
aI119
aI127
aI137
aI141
aI145
aI153
aI164
aI174
aI179
aI185
aI193
aI212
aI222
aI229
aI247
aI249
aI250
aI251
aI253
aI257
aI267
aI270
aI271
aI274
aI294
aI300
aI306
aI335
aI336
aI373
asI285
(lp286
I39
aI55
aI61
aI70
aI83
aI111
aI113
aI114
aI115
aI118
aI123
aI128
aI130
aI133
aI134
aI135
aI142
aI180
aI192
aI204
aI244
aI245
aI273
aI276
aI277
aI292
aI318
aI321
aI338
aI356
aI366
aI380
aI383
aI387
aI400
aI404
aI428
asI286
(lp287
I61
aI72
aI126
aI136
aI220
aI277
aI393
asI287
(lp288
I1
asI288
(lp289
I188
aI208
asI289
(lp290
I293
aI397
asI290
(lp291
I93
aI124
aI211
aI227
aI358
asI291
(lp292
I2
aI30
aI66
aI95
aI148
aI176
aI191
aI232
aI261
aI266
aI324
aI334
aI376
aI413
asI292
(lp293
I40
aI52
aI70
aI113
aI114
aI118
aI123
aI133
aI142
aI149
aI168
aI203
aI273
aI276
aI277
aI285
aI301
aI318
aI321
aI338
aI356
aI363
aI380
aI383
aI387
aI404
aI428
asI293
(lp294
I45
aI79
aI107
aI250
aI289
aI326
aI330
aI357
aI361
aI397
asI294
(lp295
I6
aI16
aI22
aI36
aI37
aI41
aI48
aI49
aI58
aI60
aI64
aI65
aI75
aI77
aI90
aI92
aI99
aI112
aI119
aI127
aI137
aI141
aI153
aI163
aI170
aI174
aI179
aI185
aI193
aI212
aI242
aI249
aI250
aI251
aI253
aI257
aI270
aI271
aI284
aI306
aI315
aI373
asI295
(lp296
I28
aI35
aI40
aI79
aI156
aI181
aI194
aI243
aI299
aI432
asI296
(lp297
I72
aI91
aI115
aI169
aI272
aI277
asI297
(lp298
sI298
(lp299
I23
aI26
aI43
aI61
aI72
aI83
aI91
aI103
aI117
aI126
aI136
aI144
aI151
aI158
aI198
aI218
aI220
aI277
aI307
aI312
aI317
aI322
aI331
aI332
aI341
aI346
aI383
aI389
aI410
aI414
aI415
aI434
asI299
(lp300
I79
aI97
aI114
aI181
aI182
aI194
aI243
aI272
aI295
aI349
aI380
asI300
(lp301
I4
aI7
aI8
aI10
aI11
aI12
aI14
aI16
aI22
aI24
aI25
aI27
aI34
aI38
aI47
aI48
aI49
aI53
aI58
aI65
aI69
aI75
aI78
aI80
aI87
aI88
aI90
aI96
aI100
aI101
aI112
aI127
aI137
aI145
aI153
aI157
aI163
aI164
aI170
aI174
aI222
aI228
aI229
aI239
aI247
aI248
aI249
aI250
aI252
aI253
aI255
aI256
aI258
aI269
aI274
aI282
aI284
aI305
aI306
aI314
aI373
aI407
asI301
(lp302
I0
aI51
aI61
aI72
aI91
aI147
aI151
aI175
aI184
aI209
aI217
aI220
aI277
aI292
aI309
aI322
aI393
aI419
aI434
asI302
(lp303
I91
aI136
aI169
aI187
aI277
aI367
aI368
asI303
(lp304
sI304
(lp305
I197
asI305
(lp306
I6
aI8
aI9
aI10
aI15
aI16
aI24
aI25
aI27
aI31
aI34
aI37
aI48
aI58
aI65
aI69
aI80
aI86
aI87
aI90
aI96
aI100
aI101
aI102
aI112
aI127
aI137
aI141
aI157
aI163
aI170
aI174
aI206
aI222
aI228
aI229
aI246
aI247
aI248
aI249
aI253
aI254
aI255
aI258
aI269
aI270
aI271
aI274
aI300
aI306
aI314
aI330
aI335
aI336
aI373
aI425
asI306
(lp307
I4
aI6
aI7
aI8
aI9
aI10
aI12
aI14
aI15
aI16
aI22
aI24
aI27
aI31
aI34
aI36
aI37
aI38
aI41
aI44
aI47
aI48
aI49
aI53
aI57
aI58
aI60
aI64
aI65
aI69
aI75
aI77
aI78
aI80
aI84
aI86
aI87
aI88
aI90
aI96
aI100
aI101
aI110
aI112
aI119
aI127
aI131
aI137
aI139
aI141
aI144
aI145
aI153
aI157
aI163
aI170
aI174
aI212
aI219
aI222
aI228
aI229
aI235
aI239
aI242
aI246
aI247
aI248
aI249
aI250
aI251
aI252
aI253
aI255
aI256
aI258
aI269
aI270
aI271
aI274
aI284
aI294
aI300
aI305
aI314
aI315
aI330
aI335
aI336
aI420
aI425
asI307
(lp308
I23
aI61
aI103
aI151
aI152
aI158
aI169
aI198
aI298
aI312
aI317
aI318
aI322
aI326
aI332
aI341
aI346
aI397
asI308
(lp309
sI309
(lp310
I0
aI51
aI95
aI155
aI175
aI217
aI301
aI310
aI322
aI342
aI401
aI419
aI434
asI310
(lp311
I0
aI95
aI122
aI175
aI309
aI340
aI342
asI311
(lp312
I109
aI191
aI218
aI277
aI348
aI414
asI312
(lp313
I23
aI26
aI43
aI61
aI67
aI70
aI73
aI83
aI103
aI117
aI126
aI130
aI131
aI144
aI151
aI155
aI158
aI198
aI217
aI260
aI261
aI275
aI277
aI278
aI298
aI307
aI317
aI318
aI319
aI322
aI331
aI332
aI341
aI346
aI353
aI357
aI367
aI376
aI383
aI397
aI401
aI406
aI415
aI419
aI434
asI313
(lp314
I17
aI68
aI70
aI114
aI123
aI133
aI187
aI189
aI216
aI223
aI226
aI277
aI323
aI337
aI347
aI350
aI352
aI370
aI380
aI386
aI394
asI314
(lp315
I8
aI15
aI16
aI22
aI27
aI31
aI34
aI37
aI47
aI48
aI49
aI58
aI60
aI64
aI65
aI69
aI75
aI80
aI87
aI88
aI90
aI92
aI96
aI100
aI110
aI112
aI127
aI137
aI141
aI153
aI157
aI163
aI164
aI170
aI174
aI179
aI222
aI239
aI242
aI247
aI248
aI249
aI250
aI252
aI253
aI255
aI256
aI270
aI274
aI282
aI300
aI305
aI306
aI330
aI335
aI336
aI373
aI425
aI436
asI315
(lp316
I15
aI22
aI34
aI36
aI37
aI38
aI41
aI47
aI48
aI49
aI58
aI60
aI63
aI64
aI75
aI77
aI87
aI90
aI92
aI99
aI112
aI119
aI127
aI137
aI153
aI170
aI179
aI185
aI193
aI212
aI239
aI242
aI247
aI249
aI250
aI251
aI257
aI270
aI271
aI274
aI294
aI306
aI336
aI373
asI316
(lp317
I130
aI278
aI341
aI375
aI385
asI317
(lp318
I23
aI26
aI43
aI61
aI67
aI73
aI83
aI103
aI117
aI122
aI126
aI131
aI144
aI151
aI155
aI158
aI198
aI260
aI275
aI277
aI278
aI281
aI298
aI307
aI312
aI322
aI331
aI332
aI341
aI346
aI389
aI390
aI410
aI414
aI415
aI434
asI318
(lp319
I52
aI70
aI113
aI114
aI123
aI131
aI133
aI142
aI149
aI151
aI168
aI203
aI205
aI216
aI273
aI285
aI292
aI307
aI312
aI321
aI338
aI353
aI355
aI356
aI363
aI380
aI383
aI387
aI400
aI404
aI409
aI428
asI319
(lp320
I221
aI236
aI312
asI320
(lp321
I172
aI263
aI277
asI321
(lp322
I52
aI70
aI113
aI114
aI118
aI123
aI133
aI142
aI149
aI168
aI186
aI203
aI234
aI273
aI285
aI292
aI318
aI338
aI353
aI356
aI363
aI380
aI383
aI387
aI404
aI428
asI322
(lp323
I0
aI23
aI61
aI103
aI126
aI130
aI131
aI144
aI151
aI158
aI198
aI217
aI277
aI298
aI301
aI307
aI309
aI312
aI317
aI332
aI341
aI346
aI397
aI419
aI434
asI323
(lp324
I13
aI19
aI21
aI39
aI51
aI55
aI56
aI57
aI68
aI81
aI82
aI84
aI94
aI102
aI104
aI107
aI108
aI111
aI114
aI118
aI123
aI128
aI132
aI134
aI138
aI162
aI165
aI166
aI173
aI177
aI180
aI189
aI195
aI196
aI201
aI202
aI203
aI204
aI206
aI216
aI219
aI224
aI238
aI244
aI246
aI264
aI272
aI276
aI313
aI328
aI330
aI333
aI349
aI378
aI380
aI383
aI386
aI387
aI430
asI324
(lp325
I2
aI30
aI148
aI152
aI176
aI191
aI266
aI291
aI325
aI334
aI359
aI370
aI372
aI376
aI413
aI427
asI325
(lp326
I30
aI191
aI324
asI326
(lp327
I17
aI91
aI113
aI136
aI172
aI217
aI264
aI277
aI293
aI307
aI328
aI364
aI367
aI392
aI397
aI420
aI422
aI427
asI327
(lp328
I5
aI84
aI128
aI263
asI328
(lp329
I13
aI19
aI21
aI39
aI51
aI55
aI56
aI57
aI81
aI82
aI84
aI94
aI102
aI107
aI108
aI111
aI118
aI128
aI132
aI134
aI138
aI162
aI165
aI166
aI177
aI180
aI195
aI201
aI202
aI204
aI206
aI219
aI238
aI244
aI246
aI264
aI272
aI276
aI323
aI326
aI330
aI333
aI378
aI383
aI397
asI329
(lp330
I5
aI115
aI382
asI330
(lp331
I7
aI10
aI13
aI39
aI45
aI55
aI61
aI63
aI65
aI80
aI81
aI82
aI84
aI94
aI100
aI102
aI107
aI108
aI110
aI111
aI112
aI118
aI128
aI134
aI138
aI146
aI159
aI162
aI165
aI166
aI174
aI177
aI180
aI183
aI195
aI201
aI202
aI204
aI206
aI219
aI222
aI228
aI235
aI238
aI239
aI242
aI244
aI246
aI247
aI249
aI250
aI253
aI255
aI272
aI276
aI277
aI282
aI293
aI305
aI306
aI314
aI323
aI328
aI333
aI378
asI331
(lp332
I23
aI26
aI42
aI61
aI73
aI83
aI91
aI103
aI131
aI136
aI144
aI151
aI158
aI172
aI260
aI275
aI277
aI298
aI312
aI317
aI332
aI341
aI392
aI405
aI415
aI419
aI427
aI434
asI332
(lp333
I17
aI23
aI26
aI42
aI61
aI103
aI117
aI151
aI158
aI198
aI218
aI277
aI278
aI298
aI307
aI312
aI317
aI322
aI331
aI341
aI346
aI389
aI414
aI419
asI333
(lp334
I13
aI19
aI21
aI39
aI51
aI55
aI56
aI57
aI81
aI82
aI84
aI94
aI102
aI107
aI108
aI111
aI118
aI128
aI132
aI134
aI138
aI162
aI165
aI166
aI177
aI180
aI195
aI201
aI202
aI204
aI206
aI219
aI224
aI238
aI244
aI246
aI264
aI272
aI276
aI323
aI328
aI330
aI378
aI383
asI334
(lp335
I0
aI2
aI23
aI30
aI66
aI95
aI103
aI148
aI176
aI191
aI198
aI232
aI261
aI266
aI291
aI324
aI346
aI376
aI413
asI335
(lp336
I7
aI9
aI15
aI16
aI22
aI24
aI31
aI34
aI36
aI37
aI47
aI48
aI58
aI64
aI69
aI77
aI87
aI88
aI96
aI100
aI119
aI127
aI137
aI141
aI145
aI153
aI157
aI170
aI222
aI229
aI247
aI248
aI249
aI250
aI252
aI253
aI255
aI256
aI257
aI258
aI270
aI284
aI305
aI306
aI314
aI336
aI373
asI336
(lp337
I6
aI7
aI8
aI9
aI11
aI12
aI14
aI16
aI22
aI24
aI25
aI27
aI33
aI34
aI37
aI38
aI47
aI48
aI49
aI58
aI60
aI63
aI64
aI65
aI69
aI75
aI80
aI87
aI88
aI90
aI92
aI99
aI100
aI101
aI108
aI110
aI112
aI119
aI127
aI137
aI141
aI145
aI153
aI157
aI163
aI164
aI170
aI174
aI212
aI222
aI239
aI242
aI247
aI248
aI249
aI250
aI251
aI252
aI254
aI255
aI256
aI257
aI258
aI269
aI270
aI271
aI274
aI282
aI284
aI305
aI306
aI314
aI315
aI335
aI373
aI425
asI337
(lp338
I187
aI201
aI216
aI226
aI313
aI350
aI352
aI394
asI338
(lp339
I7
aI17
aI52
aI70
aI113
aI114
aI123
aI133
aI142
aI149
aI168
aI203
aI216
aI223
aI273
aI285
aI292
aI318
aI321
aI356
aI380
aI383
aI387
aI404
aI428
asI339
(lp340
I40
aI45
aI129
aI136
aI280
aI343
aI351
aI372
aI421
asI340
(lp341
I95
aI122
aI175
aI310
aI342
asI341
(lp342
I17
aI23
aI26
aI43
aI61
aI67
aI73
aI83
aI91
aI103
aI113
aI115
aI117
aI126
aI130
aI131
aI144
aI146
aI151
aI158
aI198
aI218
aI223
aI260
aI275
aI277
aI278
aI298
aI307
aI312
aI316
aI317
aI322
aI331
aI332
aI346
aI353
aI367
aI370
aI375
aI389
aI410
aI415
aI434
asI342
(lp343
I0
aI95
aI122
aI175
aI184
aI209
aI231
aI233
aI309
aI310
aI340
aI399
asI343
(lp344
I17
aI45
aI61
aI79
aI91
aI115
aI136
aI146
aI172
aI277
aI278
aI339
aI346
aI348
aI370
aI372
aI383
aI392
aI405
aI420
asI344
(lp345
I416
asI345
(lp346
I205
aI234
aI395
aI400
aI415
asI346
(lp347
I23
aI26
aI43
aI61
aI67
aI73
aI83
aI103
aI117
aI126
aI130
aI131
aI135
aI144
aI151
aI155
aI158
aI198
aI215
aI230
aI245
aI260
aI275
aI277
aI278
aI281
aI298
aI307
aI312
aI317
aI322
aI332
aI334
aI341
aI343
aI353
aI389
asI347
(lp348
I17
aI70
aI199
aI223
aI252
aI313
aI363
aI387
aI428
asI348
(lp349
I23
aI61
aI91
aI109
aI117
aI151
aI155
aI215
aI218
aI277
aI311
aI343
aI353
aI367
aI382
aI405
aI421
asI349
(lp350
I50
aI151
aI159
aI169
aI275
aI299
aI323
asI350
(lp351
I187
aI216
aI226
aI313
aI337
aI352
aI394
asI351
(lp352
I17
aI83
aI91
aI115
aI129
aI136
aI160
aI277
aI280
aI339
aI372
aI374
aI390
aI405
aI421
aI422
asI352
(lp353
I187
aI201
aI216
aI226
aI313
aI337
aI350
aI394
asI353
(lp354
I17
aI42
aI83
aI91
aI111
aI113
aI117
aI126
aI131
aI134
aI151
aI172
aI260
aI277
aI312
aI318
aI321
aI341
aI346
aI348
aI387
asI354
(lp355
I368
asI355
(lp356
I130
aI155
aI182
aI318
aI405
asI356
(lp357
I52
aI70
aI94
aI113
aI114
aI118
aI123
aI133
aI142
aI149
aI168
aI203
aI273
aI285
aI292
aI318
aI321
aI338
aI380
aI383
aI404
aI428
asI357
(lp358
I23
aI293
aI312
aI391
asI358
(lp359
I32
aI124
aI213
aI227
aI290
aI365
asI359
(lp360
I152
aI324
asI360
(lp361
I120
aI186
aI212
aI224
aI259
asI361
(lp362
I29
aI65
aI90
aI148
aI183
aI237
aI269
aI293
asI362
(lp363
I372
asI363
(lp364
I70
aI113
aI130
aI133
aI162
aI168
aI276
aI292
aI318
aI321
aI347
aI378
aI380
aI387
aI400
aI428
asI364
(lp365
I45
aI91
aI115
aI136
aI146
aI156
aI172
aI277
aI326
aI367
aI370
aI392
aI405
aI406
aI427
asI365
(lp366
I32
aI46
aI62
aI93
aI121
aI124
aI125
aI154
aI167
aI171
aI213
aI241
aI283
aI358
asI366
(lp367
I91
aI111
aI113
aI115
aI180
aI277
aI285
aI370
aI387
aI404
asI367
(lp368
I91
aI115
aI117
aI136
aI151
aI172
aI173
aI218
aI277
aI302
aI312
aI326
aI341
aI348
aI364
aI392
aI421
aI422
aI427
asI368
(lp369
I302
aI354
asI369
(lp370
I67
aI190
aI194
aI215
aI230
asI370
(lp371
I61
aI67
aI91
aI115
aI134
aI136
aI146
aI277
aI313
aI324
aI341
aI343
aI364
aI366
aI421
asI371
(lp372
I46
aI93
aI125
aI154
aI171
aI227
aI241
aI283
aI396
asI372
(lp373
I45
aI91
aI129
aI136
aI160
aI169
aI172
aI183
aI277
aI280
aI324
aI339
aI343
aI351
aI362
aI374
aI405
aI421
asI373
(lp374
I6
aI8
aI15
aI16
aI22
aI24
aI25
aI27
aI31
aI34
aI37
aI38
aI41
aI47
aI48
aI49
aI58
aI60
aI64
aI65
aI69
aI75
aI77
aI78
aI80
aI87
aI88
aI90
aI92
aI96
aI100
aI101
aI110
aI112
aI127
aI137
aI141
aI145
aI153
aI157
aI163
aI170
aI174
aI179
aI185
aI222
aI228
aI235
aI239
aI242
aI247
aI248
aI249
aI250
aI252
aI253
aI255
aI256
aI257
aI269
aI271
aI274
aI282
aI284
aI294
aI300
aI305
aI314
aI315
aI335
aI336
aI425
aI436
asI374
(lp375
I280
aI351
aI372
asI375
(lp376
I130
aI316
aI341
asI376
(lp377
I2
aI23
aI30
aI61
aI95
aI146
aI148
aI176
aI191
aI232
aI261
aI266
aI291
aI312
aI324
aI334
aI413
asI377
(lp378
I79
aI432
asI378
(lp379
I13
aI19
aI39
aI55
aI56
aI57
aI81
aI84
aI94
aI102
aI107
aI108
aI111
aI118
aI132
aI134
aI138
aI162
aI165
aI166
aI177
aI180
aI190
aI195
aI201
aI202
aI204
aI206
aI219
aI238
aI244
aI246
aI264
aI272
aI275
aI276
aI280
aI323
aI328
aI330
aI333
aI363
aI383
asI379
(lp380
sI380
(lp381
I52
aI68
aI70
aI111
aI113
aI114
aI118
aI133
aI142
aI149
aI168
aI189
aI203
aI245
aI265
aI273
aI276
aI285
aI292
aI299
aI313
aI318
aI321
aI323
aI338
aI356
aI363
aI383
aI386
aI387
aI404
aI409
aI428
asI381
(lp382
I383
asI382
(lp383
I109
aI218
aI277
aI329
aI348
asI383
(lp384
I13
aI19
aI21
aI52
aI55
aI56
aI61
aI70
aI81
aI84
aI94
aI102
aI104
aI107
aI111
aI113
aI114
aI118
aI123
aI133
aI134
aI136
aI138
aI142
aI149
aI168
aI180
aI195
aI201
aI202
aI203
aI204
aI205
aI206
aI219
aI234
aI238
aI244
aI264
aI273
aI276
aI277
aI285
aI292
aI298
aI312
aI318
aI321
aI323
aI328
aI333
aI338
aI343
aI356
aI378
aI380
aI381
aI387
aI400
aI404
aI409
aI421
aI428
asI384
(lp385
sI385
(lp386
I91
aI147
aI161
aI277
aI316
asI386
(lp387
I29
aI68
aI138
aI173
aI177
aI189
aI202
aI224
aI313
aI323
aI380
aI430
asI387
(lp388
I18
aI39
aI51
aI52
aI55
aI70
aI102
aI107
aI111
aI113
aI114
aI118
aI123
aI126
aI130
aI133
aI134
aI142
aI149
aI160
aI168
aI180
aI192
aI205
aI206
aI210
aI223
aI234
aI240
aI273
aI276
aI285
aI292
aI318
aI321
aI323
aI338
aI347
aI353
aI363
aI366
aI380
aI383
aI400
aI404
aI409
aI422
aI428
asI388
(lp389
I433
asI389
(lp390
I23
aI26
aI43
aI61
aI103
aI109
aI117
aI126
aI130
aI151
aI158
aI160
aI198
aI218
aI277
aI298
aI317
aI332
aI341
aI346
aI414
aI415
aI434
asI390
(lp391
I23
aI43
aI83
aI103
aI158
aI317
aI351
asI391
(lp392
I357
asI392
(lp393
I17
aI45
aI109
aI113
aI136
aI158
aI326
aI331
aI343
aI364
aI367
aI405
aI420
aI421
aI427
asI393
(lp394
I61
aI72
aI126
aI220
aI277
aI286
aI301
asI394
(lp395
I187
aI216
aI226
aI313
aI337
aI350
aI352
asI395
(lp396
I181
aI186
aI194
aI255
aI345
aI405
asI396
(lp397
I62
aI74
aI213
aI227
aI237
aI241
aI371
asI397
(lp398
I17
aI42
aI61
aI70
aI81
aI82
aI94
aI98
aI131
aI160
aI169
aI223
aI264
aI275
aI277
aI289
aI293
aI307
aI312
aI322
aI326
aI328
aI406
aI418
aI420
asI398
(lp399
I403
asI399
(lp400
I231
aI342
aI426
asI400
(lp401
I70
aI113
aI130
aI205
aI210
aI223
aI234
aI276
aI285
aI318
aI345
aI363
aI383
aI387
aI404
aI409
asI401
(lp402
I0
aI61
aI131
aI240
aI245
aI277
aI309
aI312
asI402
(lp403
I183
aI205
asI403
(lp404
I398
asI404
(lp405
I39
aI52
aI70
aI90
aI102
aI113
aI114
aI118
aI123
aI128
aI133
aI134
aI142
aI149
aI168
aI186
aI192
aI203
aI234
aI273
aI276
aI277
aI279
aI285
aI292
aI318
aI321
aI338
aI356
aI366
aI380
aI383
aI387
aI400
aI428
asI405
(lp406
I45
aI91
aI115
aI136
aI146
aI186
aI218
aI277
aI331
aI343
aI348
aI351
aI355
aI364
aI372
aI392
aI395
aI420
aI421
aI427
asI406
(lp407
I17
aI81
aI91
aI94
aI136
aI146
aI173
aI273
aI277
aI312
aI364
aI397
aI429
asI407
(lp408
I105
aI139
aI141
aI145
aI228
aI300
asI408
(lp409
sI409
(lp410
I129
aI203
aI234
aI276
aI280
aI318
aI380
aI383
aI387
aI400
asI410
(lp411
I23
aI298
aI317
aI341
asI411
(lp412
I40
aI59
aI166
asI412
(lp413
I82
aI176
aI217
asI413
(lp414
I148
aI278
aI291
aI324
aI334
aI376
asI414
(lp415
I23
aI61
aI73
aI83
aI103
aI117
aI130
aI151
aI158
aI218
aI278
aI298
aI311
aI317
aI332
aI389
aI415
asI415
(lp416
I23
aI26
aI103
aI109
aI117
aI158
aI198
aI218
aI298
aI312
aI317
aI331
aI341
aI345
aI389
aI414
aI437
asI416
(lp417
I344
asI417
(lp418
I5
aI130
asI418
(lp419
I79
aI91
aI277
aI397
asI419
(lp420
I0
aI17
aI61
aI158
aI186
aI217
aI277
aI301
aI309
aI312
aI322
aI331
aI332
asI420
(lp421
I17
aI45
aI91
aI136
aI172
aI277
aI306
aI326
aI343
aI392
aI397
aI405
aI427
asI421
(lp422
I45
aI91
aI115
aI136
aI146
aI172
aI277
aI278
aI339
aI348
aI351
aI367
aI370
aI372
aI383
aI392
aI405
asI422
(lp423
I91
aI113
aI115
aI172
aI277
aI326
aI351
aI367
aI387
aI427
asI423
(lp424
sI424
(lp425
sI425
(lp426
I8
aI16
aI47
aI49
aI65
aI69
aI75
aI90
aI119
aI137
aI157
aI163
aI179
aI239
aI242
aI247
aI250
aI254
aI255
aI305
aI306
aI314
aI336
aI373
aI436
asI426
(lp427
I399
asI427
(lp428
I91
aI172
aI277
aI324
aI326
aI331
aI364
aI367
aI392
aI405
aI420
aI422
asI428
(lp429
I70
aI113
aI123
aI149
aI203
aI276
aI285
aI292
aI318
aI321
aI338
aI347
aI356
aI363
aI380
aI383
aI387
aI404
asI429
(lp430
I173
aI260
aI406
asI430
(lp431
I138
aI189
aI323
aI386
asI431
(lp432
sI432
(lp433
I28
aI40
aI79
aI85
aI89
aI156
aI178
aI181
aI182
aI194
aI243
aI295
aI377
asI433
(lp434
I388
asI434
(lp435
I0
aI43
aI61
aI72
aI91
aI126
aI147
aI158
aI198
aI209
aI217
aI220
aI260
aI275
aI277
aI298
aI301
aI309
aI312
aI317
aI322
aI331
aI341
aI389
asI435
(lp436
sI436
(lp437
I16
aI69
aI254
aI314
aI373
aI425
asI437
(lp438
I415
asI438
(lp439
s.